SF:src/test/cpp/rc_file_test.cc
FN:71,_ZN5blaze10RcFileTest5SetUpEv
FN:100,_ZN5blaze10RcFileTest8TearDownEv
FN:61,_ZN5blaze10RcFileTestC2Ev
FN:361,_ZN5blaze16ParseOptionsTest26ParseOptionsAndCheckOutputERKSt6vectorINSt7__cxx1112basic_stringIcSt11char_traitsIcESaIcEEESaIS7_EEN15blaze_exit_code8ExitCodeERKS7_SF_
FN:671,_ZN5blaze17BlazercImportTest34TestThatDoubleImportsCauseAWarningERKNSt7__cxx1112basic_stringIcSt11char_traitsIcESaIcEEE
FN:732,_ZN5blaze17BlazercImportTest38TestThatDeepDoubleImportCausesAWarningERKNSt7__cxx1112basic_stringIcSt11char_traitsIcESaIcEEE
FN:629,_ZN5blaze17BlazercImportTest39TestBazelRcImportsMaintainsFlagOrderingERKNSt7__cxx1112basic_stringIcSt11char_traitsIcESaIcEEE
FN:763,_ZN5blaze17BlazercImportTest50TestThatImportingAFileAndPassingItInCausesAWarningERKNSt7__cxx1112basic_stringIcSt11char_traitsIcESaIcEEE
FN:711,_ZN5blaze17BlazercImportTest53TestThatDoubleImportWithExcessPathSyntaxCauseAWarningERKNSt7__cxx1112basic_stringIcSt11char_traitsIcESaIcEEE
FN:690,_ZN5blaze17BlazercImportTest60TestThatDoubleImportWithWorkspaceRelativeSyntaxCauseAWarningERKNSt7__cxx1112basic_stringIcSt11char_traitsIcESaIcEEE
FN:54,_ZN5blaze23CanonicalSourcePathsAreINSt7__cxx1112basic_stringIcSt11char_traitsIcESaIcEEEEENS_31CanonicalSourcePathsAreMatcherPIT_EES8_
FN:54,_ZN5blaze23CanonicalSourcePathsAreIPKcEENS_31CanonicalSourcePathsAreMatcherPIT_EES4_
FN:54,_ZN5blaze31CanonicalSourcePathsAreMatcherPINSt7__cxx1112basic_stringIcSt11char_traitsIcESaIcEEEE10gmock_ImplIRKNS_6RcFileEEC2ES6_
FN:54,_ZN5blaze31CanonicalSourcePathsAreMatcherPIPKcE10gmock_ImplIRKNS_6RcFileEEC2ES2_
FN:498,_ZN5blaze45ParseOptionsTest_BazelrcHasUnknownOption_Test8TestBodyEv
FN:498,_ZN5blaze45ParseOptionsTest_BazelrcHasUnknownOption_TestC2Ev
FN:498,_ZN5blaze45ParseOptionsTest_BazelrcHasUnknownOption_TestD0Ev
FN:498,_ZN5blaze45ParseOptionsTest_BazelrcHasUnknownOption_TestD2Ev
FN:314,_ZN5blaze47GetRcFileTest_GetRcFilesReadsCommandLineRc_Test8TestBodyEv
FN:314,_ZN5blaze47GetRcFileTest_GetRcFilesReadsCommandLineRc_TestC2Ev
FN:314,_ZN5blaze47GetRcFileTest_GetRcFilesReadsCommandLineRc_TestD0Ev
FN:314,_ZN5blaze47GetRcFileTest_GetRcFilesReadsCommandLineRc_TestD2Ev
FN:218,_ZN5blaze47GetRcFileTest_GetRcFilesRespectsNoSystemRc_Test8TestBodyEv
FN:218,_ZN5blaze47GetRcFileTest_GetRcFilesRespectsNoSystemRc_TestC2Ev
FN:218,_ZN5blaze47GetRcFileTest_GetRcFilesRespectsNoSystemRc_TestD0Ev
FN:218,_ZN5blaze47GetRcFileTest_GetRcFilesRespectsNoSystemRc_TestD2Ev
FN:849,_ZN5blaze49BlazercImportTest_DoubleImportsCauseAWarning_Test8TestBodyEv
FN:849,_ZN5blaze49BlazercImportTest_DoubleImportsCauseAWarning_TestC2Ev
FN:849,_ZN5blaze49BlazercImportTest_DoubleImportsCauseAWarning_TestD0Ev
FN:849,_ZN5blaze49BlazercImportTest_DoubleImportsCauseAWarning_TestD2Ev
FN:241,_ZN5blaze50GetRcFileTest_GetRcFilesRespectsNoWorkspaceRc_Test8TestBodyEv
FN:241,_ZN5blaze50GetRcFileTest_GetRcFilesRespectsNoWorkspaceRc_TestC2Ev
FN:241,_ZN5blaze50GetRcFileTest_GetRcFilesRespectsNoWorkspaceRc_TestD0Ev
FN:241,_ZN5blaze50GetRcFileTest_GetRcFilesRespectsNoWorkspaceRc_TestD2Ev
FN:853,_ZN5blaze52BlazercImportTest_DoubleTryImportsCauseAWarning_Test8TestBodyEv
FN:853,_ZN5blaze52BlazercImportTest_DoubleTryImportsCauseAWarning_TestC2Ev
FN:853,_ZN5blaze52BlazercImportTest_DoubleTryImportsCauseAWarning_TestD0Ev
FN:853,_ZN5blaze52BlazercImportTest_DoubleTryImportsCauseAWarning_TestD2Ev
FN:193,_ZN5blaze52GetRcFileTest_GetRcFilesLoadsAllDefaultBazelrcs_Test8TestBodyEv
FN:193,_ZN5blaze52GetRcFileTest_GetRcFilesLoadsAllDefaultBazelrcs_TestC2Ev
FN:193,_ZN5blaze52GetRcFileTest_GetRcFilesLoadsAllDefaultBazelrcs_TestD0Ev
FN:193,_ZN5blaze52GetRcFileTest_GetRcFilesLoadsAllDefaultBazelrcs_TestD2Ev
FN:408,_ZN5blaze52ParseOptionsTest_LaterIgnoreAllRcFilesValueWins_Test8TestBodyEv
FN:408,_ZN5blaze52ParseOptionsTest_LaterIgnoreAllRcFilesValueWins_TestC2Ev
FN:408,_ZN5blaze52ParseOptionsTest_LaterIgnoreAllRcFilesValueWins_TestD0Ev
FN:408,_ZN5blaze52ParseOptionsTest_LaterIgnoreAllRcFilesValueWins_TestD2Ev
FN:901,_ZN5blaze53BlazercImportTest_DeepDoubleImportCausesAWarning_Test8TestBodyEv
FN:901,_ZN5blaze53BlazercImportTest_DeepDoubleImportCausesAWarning_TestC2Ev
FN:901,_ZN5blaze53BlazercImportTest_DeepDoubleImportCausesAWarning_TestD0Ev
FN:901,_ZN5blaze53BlazercImportTest_DeepDoubleImportCausesAWarning_TestD2Ev
FN:340,_ZN5blaze53GetRcFileTest_GetRcFilesAcceptsNullCommandLineRc_Test8TestBodyEv
FN:340,_ZN5blaze53GetRcFileTest_GetRcFilesAcceptsNullCommandLineRc_TestC2Ev
FN:340,_ZN5blaze53GetRcFileTest_GetRcFilesAcceptsNullCommandLineRc_TestD0Ev
FN:340,_ZN5blaze53GetRcFileTest_GetRcFilesAcceptsNullCommandLineRc_TestD2Ev
FN:787,_ZN5blaze55BlazercImportTest_BazelRcImportFailsForMissingFile_Test8TestBodyEv
FN:787,_ZN5blaze55BlazercImportTest_BazelRcImportFailsForMissingFile_TestC2Ev
FN:787,_ZN5blaze55BlazercImportTest_BazelRcImportFailsForMissingFile_TestD0Ev
FN:787,_ZN5blaze55BlazercImportTest_BazelRcImportFailsForMissingFile_TestD2Ev
FN:905,_ZN5blaze56BlazercImportTest_DeepDoubleTryImportCausesAWarning_Test8TestBodyEv
FN:905,_ZN5blaze56BlazercImportTest_DeepDoubleTryImportCausesAWarning_TestC2Ev
FN:905,_ZN5blaze56BlazercImportTest_DeepDoubleTryImportCausesAWarning_TestD0Ev
FN:905,_ZN5blaze56BlazercImportTest_DeepDoubleTryImportCausesAWarning_TestD2Ev
FN:467,_ZN5blaze56ParseOptionsTest_CommandLineBazelrcHasUnknownOption_Test8TestBodyEv
FN:467,_ZN5blaze56ParseOptionsTest_CommandLineBazelrcHasUnknownOption_TestC2Ev
FN:467,_ZN5blaze56ParseOptionsTest_CommandLineBazelrcHasUnknownOption_TestD0Ev
FN:467,_ZN5blaze56ParseOptionsTest_CommandLineBazelrcHasUnknownOption_TestD2Ev
FN:841,_ZN5blaze58BlazercImportTest_BazelRcImportsMaintainsFlagOrdering_Test8TestBodyEv
FN:841,_ZN5blaze58BlazercImportTest_BazelRcImportsMaintainsFlagOrdering_TestC2Ev
FN:841,_ZN5blaze58BlazercImportTest_BazelRcImportsMaintainsFlagOrdering_TestD0Ev
FN:841,_ZN5blaze58BlazercImportTest_BazelRcImportsMaintainsFlagOrdering_TestD2Ev
FN:287,_ZN5blaze59GetRcFileTest_GetRcFilesWarnsAboutIgnoredMasterRcFiles_Test8TestBodyEv
FN:287,_ZN5blaze59GetRcFileTest_GetRcFilesWarnsAboutIgnoredMasterRcFiles_TestC2Ev
FN:287,_ZN5blaze59GetRcFileTest_GetRcFilesWarnsAboutIgnoredMasterRcFiles_TestD0Ev
FN:287,_ZN5blaze59GetRcFileTest_GetRcFilesWarnsAboutIgnoredMasterRcFiles_TestD2Ev
FN:546,_ZN5blaze59ParseOptionsTest_PositiveOptionOverridesNegativeOption_Test8TestBodyEv
FN:546,_ZN5blaze59ParseOptionsTest_PositiveOptionOverridesNegativeOption_TestC2Ev
FN:546,_ZN5blaze59ParseOptionsTest_PositiveOptionOverridesNegativeOption_TestD0Ev
FN:546,_ZN5blaze59ParseOptionsTest_PositiveOptionOverridesNegativeOption_TestD2Ev
FN:845,_ZN5blaze61BlazercImportTest_BazelRcTryImportsMaintainsFlagOrdering_Test8TestBodyEv
FN:845,_ZN5blaze61BlazercImportTest_BazelRcTryImportsMaintainsFlagOrdering_TestC2Ev
FN:845,_ZN5blaze61BlazercImportTest_BazelRcTryImportsMaintainsFlagOrdering_TestD0Ev
FN:845,_ZN5blaze61BlazercImportTest_BazelRcTryImportsMaintainsFlagOrdering_TestD2Ev
FN:800,_ZN5blaze64BlazercImportTest_BazelRcTryImportDoesNotFailForMissingFile_Test8TestBodyEv
FN:800,_ZN5blaze64BlazercImportTest_BazelRcTryImportDoesNotFailForMissingFile_TestC2Ev
FN:800,_ZN5blaze64BlazercImportTest_BazelRcTryImportDoesNotFailForMissingFile_TestD0Ev
FN:800,_ZN5blaze64BlazercImportTest_BazelRcTryImportDoesNotFailForMissingFile_TestD2Ev
FN:909,_ZN5blaze65BlazercImportTest_ImportingAFileAndPassingItInCausesAWarning_Test8TestBodyEv
FN:909,_ZN5blaze65BlazercImportTest_ImportingAFileAndPassingItInCausesAWarning_TestC2Ev
FN:909,_ZN5blaze65BlazercImportTest_ImportingAFileAndPassingItInCausesAWarning_TestD0Ev
FN:909,_ZN5blaze65BlazercImportTest_ImportingAFileAndPassingItInCausesAWarning_TestD2Ev
FN:434,_ZN5blaze65ParseOptionsTest_IgnoreAllRcFilesIgnoresCommandLineRcFileToo_Test8TestBodyEv
FN:434,_ZN5blaze65ParseOptionsTest_IgnoreAllRcFilesIgnoresCommandLineRcFileToo_TestC2Ev
FN:434,_ZN5blaze65ParseOptionsTest_IgnoreAllRcFilesIgnoresCommandLineRcFileToo_TestD0Ev
FN:434,_ZN5blaze65ParseOptionsTest_IgnoreAllRcFilesIgnoresCommandLineRcFileToo_TestD2Ev
FN:816,_ZN5blaze67BlazercImportTest_BazelRcTryImportDoesNotFailForUnreadableFile_Test8TestBodyEv
FN:816,_ZN5blaze67BlazercImportTest_BazelRcTryImportDoesNotFailForUnreadableFile_TestC2Ev
FN:816,_ZN5blaze67BlazercImportTest_BazelRcTryImportDoesNotFailForUnreadableFile_TestD0Ev
FN:816,_ZN5blaze67BlazercImportTest_BazelRcTryImportDoesNotFailForUnreadableFile_TestD2Ev
FN:867,_ZN5blaze68BlazercImportTest_DoubleImportWithExcessPathSyntaxCauseAWarning_Test8TestBodyEv
FN:867,_ZN5blaze68BlazercImportTest_DoubleImportWithExcessPathSyntaxCauseAWarning_TestC2Ev
FN:867,_ZN5blaze68BlazercImportTest_DoubleImportWithExcessPathSyntaxCauseAWarning_TestD0Ev
FN:867,_ZN5blaze68BlazercImportTest_DoubleImportWithExcessPathSyntaxCauseAWarning_TestD2Ev
FN:913,_ZN5blaze68BlazercImportTest_TryImportingAFileAndPassingItInCausesAWarning_Test8TestBodyEv
FN:913,_ZN5blaze68BlazercImportTest_TryImportingAFileAndPassingItInCausesAWarning_TestC2Ev
FN:913,_ZN5blaze68BlazercImportTest_TryImportingAFileAndPassingItInCausesAWarning_TestD0Ev
FN:913,_ZN5blaze68BlazercImportTest_TryImportingAFileAndPassingItInCausesAWarning_TestD2Ev
FN:378,_ZN5blaze68ParseOptionsTest_IgnoreAllRcFilesIgnoresAllMasterAndUserRcFiles_Test8TestBodyEv
FN:378,_ZN5blaze68ParseOptionsTest_IgnoreAllRcFilesIgnoresAllMasterAndUserRcFiles_TestC2Ev
FN:378,_ZN5blaze68ParseOptionsTest_IgnoreAllRcFilesIgnoresAllMasterAndUserRcFiles_TestD0Ev
FN:378,_ZN5blaze68ParseOptionsTest_IgnoreAllRcFilesIgnoresAllMasterAndUserRcFiles_TestD2Ev
FN:592,_ZN5blaze69ParseOptionsTest_CommandLineBazelrcHasPriorityOverDefaultBazelrc_Test8TestBodyEv
FN:592,_ZN5blaze69ParseOptionsTest_CommandLineBazelrcHasPriorityOverDefaultBazelrc_TestC2Ev
FN:592,_ZN5blaze69ParseOptionsTest_CommandLineBazelrcHasPriorityOverDefaultBazelrc_TestD0Ev
FN:592,_ZN5blaze69ParseOptionsTest_CommandLineBazelrcHasPriorityOverDefaultBazelrc_TestD2Ev
FN:568,_ZN5blaze70ParseOptionsTest_MultipleStartupArgsInMasterBazelrcWorksCorrectly_Test8TestBodyEv
FN:568,_ZN5blaze70ParseOptionsTest_MultipleStartupArgsInMasterBazelrcWorksCorrectly_TestC2Ev
FN:568,_ZN5blaze70ParseOptionsTest_MultipleStartupArgsInMasterBazelrcWorksCorrectly_TestD0Ev
FN:568,_ZN5blaze70ParseOptionsTest_MultipleStartupArgsInMasterBazelrcWorksCorrectly_TestD2Ev
FN:871,_ZN5blaze71BlazercImportTest_DoubleTryImportWithExcessPathSyntaxCauseAWarning_Test8TestBodyEv
FN:871,_ZN5blaze71BlazercImportTest_DoubleTryImportWithExcessPathSyntaxCauseAWarning_TestC2Ev
FN:871,_ZN5blaze71BlazercImportTest_DoubleTryImportWithExcessPathSyntaxCauseAWarning_TestD0Ev
FN:871,_ZN5blaze71BlazercImportTest_DoubleTryImportWithExcessPathSyntaxCauseAWarning_TestD2Ev
FN:936,_ZN5blaze71ParseOptionsTest_ImportingStandardRcBeforeItIsLoadedCausesAWarning_Test8TestBodyEv
FN:936,_ZN5blaze71ParseOptionsTest_ImportingStandardRcBeforeItIsLoadedCausesAWarning_TestC2Ev
FN:936,_ZN5blaze71ParseOptionsTest_ImportingStandardRcBeforeItIsLoadedCausesAWarning_TestD0Ev
FN:936,_ZN5blaze71ParseOptionsTest_ImportingStandardRcBeforeItIsLoadedCausesAWarning_TestD2Ev
FN:921,_ZN5blaze72ParseOptionsTest_ImportingAPreviouslyLoadedStandardRcCausesAWarning_Test8TestBodyEv
FN:921,_ZN5blaze72ParseOptionsTest_ImportingAPreviouslyLoadedStandardRcCausesAWarning_TestC2Ev
FN:921,_ZN5blaze72ParseOptionsTest_ImportingAPreviouslyLoadedStandardRcCausesAWarning_TestD0Ev
FN:921,_ZN5blaze72ParseOptionsTest_ImportingAPreviouslyLoadedStandardRcCausesAWarning_TestD2Ev
FN:857,_ZN5blaze75BlazercImportTest_DoubleImportWithWorkspaceRelativeSyntaxCauseAWarning_Test8TestBodyEv
FN:857,_ZN5blaze75BlazercImportTest_DoubleImportWithWorkspaceRelativeSyntaxCauseAWarning_TestC2Ev
FN:857,_ZN5blaze75BlazercImportTest_DoubleImportWithWorkspaceRelativeSyntaxCauseAWarning_TestD0Ev
FN:857,_ZN5blaze75BlazercImportTest_DoubleImportWithWorkspaceRelativeSyntaxCauseAWarning_TestD2Ev
FN:877,_ZN5blaze76BlazercImportTest_DoubleImportWithEnclosingDirectorySyntaxCauseAWarning_Test8TestBodyEv
FN:877,_ZN5blaze76BlazercImportTest_DoubleImportWithEnclosingDirectorySyntaxCauseAWarning_TestC2Ev
FN:877,_ZN5blaze76BlazercImportTest_DoubleImportWithEnclosingDirectorySyntaxCauseAWarning_TestD0Ev
FN:877,_ZN5blaze76BlazercImportTest_DoubleImportWithEnclosingDirectorySyntaxCauseAWarning_TestD2Ev
FN:862,_ZN5blaze78BlazercImportTest_DoubleTryImportWithWorkspaceRelativeSyntaxCauseAWarning_Test8TestBodyEv
FN:862,_ZN5blaze78BlazercImportTest_DoubleTryImportWithWorkspaceRelativeSyntaxCauseAWarning_TestC2Ev
FN:862,_ZN5blaze78BlazercImportTest_DoubleTryImportWithWorkspaceRelativeSyntaxCauseAWarning_TestD0Ev
FN:862,_ZN5blaze78BlazercImportTest_DoubleTryImportWithWorkspaceRelativeSyntaxCauseAWarning_TestD2Ev
FN:264,_ZN5blaze80GetRcFileTest_GetRcFilesRespectsNoWorkspaceRcAndNoSystemAndNoHomeRcCombined_Test8TestBodyEv
FN:264,_ZN5blaze80GetRcFileTest_GetRcFilesRespectsNoWorkspaceRcAndNoSystemAndNoHomeRcCombined_TestC2Ev
FN:264,_ZN5blaze80GetRcFileTest_GetRcFilesRespectsNoWorkspaceRcAndNoSystemAndNoHomeRcCombined_TestD0Ev
FN:264,_ZN5blaze80GetRcFileTest_GetRcFilesRespectsNoWorkspaceRcAndNoSystemAndNoHomeRcCombined_TestD2Ev
FN:523,_ZN5blaze80ParseOptionsTest_IncorrectWorkspaceBazelrcIgnoredWhenNoWorkspaceRcIsPresent_Test8TestBodyEv
FN:523,_ZN5blaze80ParseOptionsTest_IncorrectWorkspaceBazelrcIgnoredWhenNoWorkspaceRcIsPresent_TestC2Ev
FN:523,_ZN5blaze80ParseOptionsTest_IncorrectWorkspaceBazelrcIgnoredWhenNoWorkspaceRcIsPresent_TestD0Ev
FN:523,_ZN5blaze80ParseOptionsTest_IncorrectWorkspaceBazelrcIgnoredWhenNoWorkspaceRcIsPresent_TestD2Ev
FN:147,_ZNK5blaze10RcFileTest15SetUpHomeRcFileERKNSt7__cxx1112basic_stringIcSt11char_traitsIcESaIcEEEPS6_
FN:124,_ZNK5blaze10RcFileTest17SetUpSystemRcFileERKNSt7__cxx1112basic_stringIcSt11char_traitsIcESaIcEEEPS6_
FN:136,_ZNK5blaze10RcFileTest20SetUpWorkspaceRcFileERKNSt7__cxx1112basic_stringIcSt11char_traitsIcESaIcEEEPS6_
FN:157,_ZNK5blaze10RcFileTest34SetUpLegacyMasterRcFileInWorkspaceERKNSt7__cxx1112basic_stringIcSt11char_traitsIcESaIcEEEPS6_
FN:170,_ZNK5blaze10RcFileTest38SetUpLegacyMasterRcFileAlongsideBinaryERKNSt7__cxx1112basic_stringIcSt11char_traitsIcESaIcEEEPS6_
FN:54,_ZNK5blaze31CanonicalSourcePathsAreMatcherPINSt7__cxx1112basic_stringIcSt11char_traitsIcESaIcEEEE10gmock_ImplIRKNS_6RcFileEE10DescribeToEPSo
FN:54,_ZNK5blaze31CanonicalSourcePathsAreMatcherPINSt7__cxx1112basic_stringIcSt11char_traitsIcESaIcEEEE10gmock_ImplIRKNS_6RcFileEE15MatchAndExplainESB_PN7testing19MatchResultListenerE
FN:54,_ZNK5blaze31CanonicalSourcePathsAreMatcherPINSt7__cxx1112basic_stringIcSt11char_traitsIcESaIcEEEE10gmock_ImplIRKNS_6RcFileEE17FormatDescriptionEb
FN:54,_ZNK5blaze31CanonicalSourcePathsAreMatcherPINSt7__cxx1112basic_stringIcSt11char_traitsIcESaIcEEEE10gmock_ImplIRKNS_6RcFileEE18DescribeNegationToEPSo
FN:54,_ZNK5blaze31CanonicalSourcePathsAreMatcherPIPKcE10gmock_ImplIRKNS_6RcFileEE10DescribeToEPSo
FN:54,_ZNK5blaze31CanonicalSourcePathsAreMatcherPIPKcE10gmock_ImplIRKNS_6RcFileEE15MatchAndExplainES7_PN7testing19MatchResultListenerE
FN:54,_ZNK5blaze31CanonicalSourcePathsAreMatcherPIPKcE10gmock_ImplIRKNS_6RcFileEE17FormatDescriptionB5cxx11Eb
FN:54,_ZNK5blaze31CanonicalSourcePathsAreMatcherPIPKcE10gmock_ImplIRKNS_6RcFileEE18DescribeNegationToEPSo
FNDA:34,_ZN5blaze10RcFileTest5SetUpEv
FNDA:34,_ZN5blaze10RcFileTest8TearDownEv
FNDA:34,_ZN5blaze10RcFileTestC2Ev
FNDA:21,_ZN5blaze16ParseOptionsTest26ParseOptionsAndCheckOutputERKSt6vectorINSt7__cxx1112basic_stringIcSt11char_traitsIcESaIcEEESaIS7_EEN15blaze_exit_code8ExitCodeERKS7_SF_
FNDA:2,_ZN5blaze17BlazercImportTest34TestThatDoubleImportsCauseAWarningERKNSt7__cxx1112basic_stringIcSt11char_traitsIcESaIcEEE
FNDA:2,_ZN5blaze17BlazercImportTest38TestThatDeepDoubleImportCausesAWarningERKNSt7__cxx1112basic_stringIcSt11char_traitsIcESaIcEEE
FNDA:2,_ZN5blaze17BlazercImportTest39TestBazelRcImportsMaintainsFlagOrderingERKNSt7__cxx1112basic_stringIcSt11char_traitsIcESaIcEEE
FNDA:2,_ZN5blaze17BlazercImportTest50TestThatImportingAFileAndPassingItInCausesAWarningERKNSt7__cxx1112basic_stringIcSt11char_traitsIcESaIcEEE
FNDA:2,_ZN5blaze17BlazercImportTest53TestThatDoubleImportWithExcessPathSyntaxCauseAWarningERKNSt7__cxx1112basic_stringIcSt11char_traitsIcESaIcEEE
FNDA:2,_ZN5blaze17BlazercImportTest60TestThatDoubleImportWithWorkspaceRelativeSyntaxCauseAWarningERKNSt7__cxx1112basic_stringIcSt11char_traitsIcESaIcEEE
FNDA:7,_ZN5blaze23CanonicalSourcePathsAreINSt7__cxx1112basic_stringIcSt11char_traitsIcESaIcEEEEENS_31CanonicalSourcePathsAreMatcherPIT_EES8_
FNDA:1,_ZN5blaze23CanonicalSourcePathsAreIPKcEENS_31CanonicalSourcePathsAreMatcherPIT_EES4_
FNDA:7,_ZN5blaze31CanonicalSourcePathsAreMatcherPINSt7__cxx1112basic_stringIcSt11char_traitsIcESaIcEEEE10gmock_ImplIRKNS_6RcFileEEC2ES6_
FNDA:1,_ZN5blaze31CanonicalSourcePathsAreMatcherPIPKcE10gmock_ImplIRKNS_6RcFileEEC2ES2_
FNDA:1,_ZN5blaze45ParseOptionsTest_BazelrcHasUnknownOption_Test8TestBodyEv
FNDA:1,_ZN5blaze45ParseOptionsTest_BazelrcHasUnknownOption_TestC2Ev
FNDA:1,_ZN5blaze45ParseOptionsTest_BazelrcHasUnknownOption_TestD0Ev
FNDA:1,_ZN5blaze45ParseOptionsTest_BazelrcHasUnknownOption_TestD2Ev
FNDA:1,_ZN5blaze47GetRcFileTest_GetRcFilesReadsCommandLineRc_Test8TestBodyEv
FNDA:1,_ZN5blaze47GetRcFileTest_GetRcFilesReadsCommandLineRc_TestC2Ev
FNDA:1,_ZN5blaze47GetRcFileTest_GetRcFilesReadsCommandLineRc_TestD0Ev
FNDA:1,_ZN5blaze47GetRcFileTest_GetRcFilesReadsCommandLineRc_TestD2Ev
FNDA:1,_ZN5blaze47GetRcFileTest_GetRcFilesRespectsNoSystemRc_Test8TestBodyEv
FNDA:1,_ZN5blaze47GetRcFileTest_GetRcFilesRespectsNoSystemRc_TestC2Ev
FNDA:1,_ZN5blaze47GetRcFileTest_GetRcFilesRespectsNoSystemRc_TestD0Ev
FNDA:1,_ZN5blaze47GetRcFileTest_GetRcFilesRespectsNoSystemRc_TestD2Ev
FNDA:1,_ZN5blaze49BlazercImportTest_DoubleImportsCauseAWarning_Test8TestBodyEv
FNDA:1,_ZN5blaze49BlazercImportTest_DoubleImportsCauseAWarning_TestC2Ev
FNDA:1,_ZN5blaze49BlazercImportTest_DoubleImportsCauseAWarning_TestD0Ev
FNDA:1,_ZN5blaze49BlazercImportTest_DoubleImportsCauseAWarning_TestD2Ev
FNDA:1,_ZN5blaze50GetRcFileTest_GetRcFilesRespectsNoWorkspaceRc_Test8TestBodyEv
FNDA:1,_ZN5blaze50GetRcFileTest_GetRcFilesRespectsNoWorkspaceRc_TestC2Ev
FNDA:1,_ZN5blaze50GetRcFileTest_GetRcFilesRespectsNoWorkspaceRc_TestD0Ev
FNDA:1,_ZN5blaze50GetRcFileTest_GetRcFilesRespectsNoWorkspaceRc_TestD2Ev
FNDA:1,_ZN5blaze52BlazercImportTest_DoubleTryImportsCauseAWarning_Test8TestBodyEv
FNDA:1,_ZN5blaze52BlazercImportTest_DoubleTryImportsCauseAWarning_TestC2Ev
FNDA:1,_ZN5blaze52BlazercImportTest_DoubleTryImportsCauseAWarning_TestD0Ev
FNDA:1,_ZN5blaze52BlazercImportTest_DoubleTryImportsCauseAWarning_TestD2Ev
FNDA:1,_ZN5blaze52GetRcFileTest_GetRcFilesLoadsAllDefaultBazelrcs_Test8TestBodyEv
FNDA:1,_ZN5blaze52GetRcFileTest_GetRcFilesLoadsAllDefaultBazelrcs_TestC2Ev
FNDA:1,_ZN5blaze52GetRcFileTest_GetRcFilesLoadsAllDefaultBazelrcs_TestD0Ev
FNDA:1,_ZN5blaze52GetRcFileTest_GetRcFilesLoadsAllDefaultBazelrcs_TestD2Ev
FNDA:1,_ZN5blaze52ParseOptionsTest_LaterIgnoreAllRcFilesValueWins_Test8TestBodyEv
FNDA:1,_ZN5blaze52ParseOptionsTest_LaterIgnoreAllRcFilesValueWins_TestC2Ev
FNDA:1,_ZN5blaze52ParseOptionsTest_LaterIgnoreAllRcFilesValueWins_TestD0Ev
FNDA:1,_ZN5blaze52ParseOptionsTest_LaterIgnoreAllRcFilesValueWins_TestD2Ev
FNDA:1,_ZN5blaze53BlazercImportTest_DeepDoubleImportCausesAWarning_Test8TestBodyEv
FNDA:1,_ZN5blaze53BlazercImportTest_DeepDoubleImportCausesAWarning_TestC2Ev
FNDA:1,_ZN5blaze53BlazercImportTest_DeepDoubleImportCausesAWarning_TestD0Ev
FNDA:1,_ZN5blaze53BlazercImportTest_DeepDoubleImportCausesAWarning_TestD2Ev
FNDA:1,_ZN5blaze53GetRcFileTest_GetRcFilesAcceptsNullCommandLineRc_Test8TestBodyEv
FNDA:1,_ZN5blaze53GetRcFileTest_GetRcFilesAcceptsNullCommandLineRc_TestC2Ev
FNDA:1,_ZN5blaze53GetRcFileTest_GetRcFilesAcceptsNullCommandLineRc_TestD0Ev
FNDA:1,_ZN5blaze53GetRcFileTest_GetRcFilesAcceptsNullCommandLineRc_TestD2Ev
FNDA:1,_ZN5blaze55BlazercImportTest_BazelRcImportFailsForMissingFile_Test8TestBodyEv
FNDA:1,_ZN5blaze55BlazercImportTest_BazelRcImportFailsForMissingFile_TestC2Ev
FNDA:1,_ZN5blaze55BlazercImportTest_BazelRcImportFailsForMissingFile_TestD0Ev
FNDA:1,_ZN5blaze55BlazercImportTest_BazelRcImportFailsForMissingFile_TestD2Ev
FNDA:1,_ZN5blaze56BlazercImportTest_DeepDoubleTryImportCausesAWarning_Test8TestBodyEv
FNDA:1,_ZN5blaze56BlazercImportTest_DeepDoubleTryImportCausesAWarning_TestC2Ev
FNDA:1,_ZN5blaze56BlazercImportTest_DeepDoubleTryImportCausesAWarning_TestD0Ev
FNDA:1,_ZN5blaze56BlazercImportTest_DeepDoubleTryImportCausesAWarning_TestD2Ev
FNDA:1,_ZN5blaze56ParseOptionsTest_CommandLineBazelrcHasUnknownOption_Test8TestBodyEv
FNDA:1,_ZN5blaze56ParseOptionsTest_CommandLineBazelrcHasUnknownOption_TestC2Ev
FNDA:1,_ZN5blaze56ParseOptionsTest_CommandLineBazelrcHasUnknownOption_TestD0Ev
FNDA:1,_ZN5blaze56ParseOptionsTest_CommandLineBazelrcHasUnknownOption_TestD2Ev
FNDA:1,_ZN5blaze58BlazercImportTest_BazelRcImportsMaintainsFlagOrdering_Test8TestBodyEv
FNDA:1,_ZN5blaze58BlazercImportTest_BazelRcImportsMaintainsFlagOrdering_TestC2Ev
FNDA:1,_ZN5blaze58BlazercImportTest_BazelRcImportsMaintainsFlagOrdering_TestD0Ev
FNDA:1,_ZN5blaze58BlazercImportTest_BazelRcImportsMaintainsFlagOrdering_TestD2Ev
FNDA:1,_ZN5blaze59GetRcFileTest_GetRcFilesWarnsAboutIgnoredMasterRcFiles_Test8TestBodyEv
FNDA:1,_ZN5blaze59GetRcFileTest_GetRcFilesWarnsAboutIgnoredMasterRcFiles_TestC2Ev
FNDA:1,_ZN5blaze59GetRcFileTest_GetRcFilesWarnsAboutIgnoredMasterRcFiles_TestD0Ev
FNDA:1,_ZN5blaze59GetRcFileTest_GetRcFilesWarnsAboutIgnoredMasterRcFiles_TestD2Ev
FNDA:1,_ZN5blaze59ParseOptionsTest_PositiveOptionOverridesNegativeOption_Test8TestBodyEv
FNDA:1,_ZN5blaze59ParseOptionsTest_PositiveOptionOverridesNegativeOption_TestC2Ev
FNDA:1,_ZN5blaze59ParseOptionsTest_PositiveOptionOverridesNegativeOption_TestD0Ev
FNDA:1,_ZN5blaze59ParseOptionsTest_PositiveOptionOverridesNegativeOption_TestD2Ev
FNDA:1,_ZN5blaze61BlazercImportTest_BazelRcTryImportsMaintainsFlagOrdering_Test8TestBodyEv
FNDA:1,_ZN5blaze61BlazercImportTest_BazelRcTryImportsMaintainsFlagOrdering_TestC2Ev
FNDA:1,_ZN5blaze61BlazercImportTest_BazelRcTryImportsMaintainsFlagOrdering_TestD0Ev
FNDA:1,_ZN5blaze61BlazercImportTest_BazelRcTryImportsMaintainsFlagOrdering_TestD2Ev
FNDA:1,_ZN5blaze64BlazercImportTest_BazelRcTryImportDoesNotFailForMissingFile_Test8TestBodyEv
FNDA:1,_ZN5blaze64BlazercImportTest_BazelRcTryImportDoesNotFailForMissingFile_TestC2Ev
FNDA:1,_ZN5blaze64BlazercImportTest_BazelRcTryImportDoesNotFailForMissingFile_TestD0Ev
FNDA:1,_ZN5blaze64BlazercImportTest_BazelRcTryImportDoesNotFailForMissingFile_TestD2Ev
FNDA:1,_ZN5blaze65BlazercImportTest_ImportingAFileAndPassingItInCausesAWarning_Test8TestBodyEv
FNDA:1,_ZN5blaze65BlazercImportTest_ImportingAFileAndPassingItInCausesAWarning_TestC2Ev
FNDA:1,_ZN5blaze65BlazercImportTest_ImportingAFileAndPassingItInCausesAWarning_TestD0Ev
FNDA:1,_ZN5blaze65BlazercImportTest_ImportingAFileAndPassingItInCausesAWarning_TestD2Ev
FNDA:1,_ZN5blaze65ParseOptionsTest_IgnoreAllRcFilesIgnoresCommandLineRcFileToo_Test8TestBodyEv
FNDA:1,_ZN5blaze65ParseOptionsTest_IgnoreAllRcFilesIgnoresCommandLineRcFileToo_TestC2Ev
FNDA:1,_ZN5blaze65ParseOptionsTest_IgnoreAllRcFilesIgnoresCommandLineRcFileToo_TestD0Ev
FNDA:1,_ZN5blaze65ParseOptionsTest_IgnoreAllRcFilesIgnoresCommandLineRcFileToo_TestD2Ev
FNDA:1,_ZN5blaze67BlazercImportTest_BazelRcTryImportDoesNotFailForUnreadableFile_Test8TestBodyEv
FNDA:1,_ZN5blaze67BlazercImportTest_BazelRcTryImportDoesNotFailForUnreadableFile_TestC2Ev
FNDA:1,_ZN5blaze67BlazercImportTest_BazelRcTryImportDoesNotFailForUnreadableFile_TestD0Ev
FNDA:1,_ZN5blaze67BlazercImportTest_BazelRcTryImportDoesNotFailForUnreadableFile_TestD2Ev
FNDA:1,_ZN5blaze68BlazercImportTest_DoubleImportWithExcessPathSyntaxCauseAWarning_Test8TestBodyEv
FNDA:1,_ZN5blaze68BlazercImportTest_DoubleImportWithExcessPathSyntaxCauseAWarning_TestC2Ev
FNDA:1,_ZN5blaze68BlazercImportTest_DoubleImportWithExcessPathSyntaxCauseAWarning_TestD0Ev
FNDA:1,_ZN5blaze68BlazercImportTest_DoubleImportWithExcessPathSyntaxCauseAWarning_TestD2Ev
FNDA:1,_ZN5blaze68BlazercImportTest_TryImportingAFileAndPassingItInCausesAWarning_Test8TestBodyEv
FNDA:1,_ZN5blaze68BlazercImportTest_TryImportingAFileAndPassingItInCausesAWarning_TestC2Ev
FNDA:1,_ZN5blaze68BlazercImportTest_TryImportingAFileAndPassingItInCausesAWarning_TestD0Ev
FNDA:1,_ZN5blaze68BlazercImportTest_TryImportingAFileAndPassingItInCausesAWarning_TestD2Ev
FNDA:1,_ZN5blaze68ParseOptionsTest_IgnoreAllRcFilesIgnoresAllMasterAndUserRcFiles_Test8TestBodyEv
FNDA:1,_ZN5blaze68ParseOptionsTest_IgnoreAllRcFilesIgnoresAllMasterAndUserRcFiles_TestC2Ev
FNDA:1,_ZN5blaze68ParseOptionsTest_IgnoreAllRcFilesIgnoresAllMasterAndUserRcFiles_TestD0Ev
FNDA:1,_ZN5blaze68ParseOptionsTest_IgnoreAllRcFilesIgnoresAllMasterAndUserRcFiles_TestD2Ev
FNDA:1,_ZN5blaze69ParseOptionsTest_CommandLineBazelrcHasPriorityOverDefaultBazelrc_Test8TestBodyEv
FNDA:1,_ZN5blaze69ParseOptionsTest_CommandLineBazelrcHasPriorityOverDefaultBazelrc_TestC2Ev
FNDA:1,_ZN5blaze69ParseOptionsTest_CommandLineBazelrcHasPriorityOverDefaultBazelrc_TestD0Ev
FNDA:1,_ZN5blaze69ParseOptionsTest_CommandLineBazelrcHasPriorityOverDefaultBazelrc_TestD2Ev
FNDA:1,_ZN5blaze70ParseOptionsTest_MultipleStartupArgsInMasterBazelrcWorksCorrectly_Test8TestBodyEv
FNDA:1,_ZN5blaze70ParseOptionsTest_MultipleStartupArgsInMasterBazelrcWorksCorrectly_TestC2Ev
FNDA:1,_ZN5blaze70ParseOptionsTest_MultipleStartupArgsInMasterBazelrcWorksCorrectly_TestD0Ev
FNDA:1,_ZN5blaze70ParseOptionsTest_MultipleStartupArgsInMasterBazelrcWorksCorrectly_TestD2Ev
FNDA:1,_ZN5blaze71BlazercImportTest_DoubleTryImportWithExcessPathSyntaxCauseAWarning_Test8TestBodyEv
FNDA:1,_ZN5blaze71BlazercImportTest_DoubleTryImportWithExcessPathSyntaxCauseAWarning_TestC2Ev
FNDA:1,_ZN5blaze71BlazercImportTest_DoubleTryImportWithExcessPathSyntaxCauseAWarning_TestD0Ev
FNDA:1,_ZN5blaze71BlazercImportTest_DoubleTryImportWithExcessPathSyntaxCauseAWarning_TestD2Ev
FNDA:1,_ZN5blaze71ParseOptionsTest_ImportingStandardRcBeforeItIsLoadedCausesAWarning_Test8TestBodyEv
FNDA:1,_ZN5blaze71ParseOptionsTest_ImportingStandardRcBeforeItIsLoadedCausesAWarning_TestC2Ev
FNDA:1,_ZN5blaze71ParseOptionsTest_ImportingStandardRcBeforeItIsLoadedCausesAWarning_TestD0Ev
FNDA:1,_ZN5blaze71ParseOptionsTest_ImportingStandardRcBeforeItIsLoadedCausesAWarning_TestD2Ev
FNDA:1,_ZN5blaze72ParseOptionsTest_ImportingAPreviouslyLoadedStandardRcCausesAWarning_Test8TestBodyEv
FNDA:1,_ZN5blaze72ParseOptionsTest_ImportingAPreviouslyLoadedStandardRcCausesAWarning_TestC2Ev
FNDA:1,_ZN5blaze72ParseOptionsTest_ImportingAPreviouslyLoadedStandardRcCausesAWarning_TestD0Ev
FNDA:1,_ZN5blaze72ParseOptionsTest_ImportingAPreviouslyLoadedStandardRcCausesAWarning_TestD2Ev
FNDA:1,_ZN5blaze75BlazercImportTest_DoubleImportWithWorkspaceRelativeSyntaxCauseAWarning_Test8TestBodyEv
FNDA:1,_ZN5blaze75BlazercImportTest_DoubleImportWithWorkspaceRelativeSyntaxCauseAWarning_TestC2Ev
FNDA:1,_ZN5blaze75BlazercImportTest_DoubleImportWithWorkspaceRelativeSyntaxCauseAWarning_TestD0Ev
FNDA:1,_ZN5blaze75BlazercImportTest_DoubleImportWithWorkspaceRelativeSyntaxCauseAWarning_TestD2Ev
FNDA:1,_ZN5blaze76BlazercImportTest_DoubleImportWithEnclosingDirectorySyntaxCauseAWarning_Test8TestBodyEv
FNDA:1,_ZN5blaze76BlazercImportTest_DoubleImportWithEnclosingDirectorySyntaxCauseAWarning_TestC2Ev
FNDA:1,_ZN5blaze76BlazercImportTest_DoubleImportWithEnclosingDirectorySyntaxCauseAWarning_TestD0Ev
FNDA:1,_ZN5blaze76BlazercImportTest_DoubleImportWithEnclosingDirectorySyntaxCauseAWarning_TestD2Ev
FNDA:1,_ZN5blaze78BlazercImportTest_DoubleTryImportWithWorkspaceRelativeSyntaxCauseAWarning_Test8TestBodyEv
FNDA:1,_ZN5blaze78BlazercImportTest_DoubleTryImportWithWorkspaceRelativeSyntaxCauseAWarning_TestC2Ev
FNDA:1,_ZN5blaze78BlazercImportTest_DoubleTryImportWithWorkspaceRelativeSyntaxCauseAWarning_TestD0Ev
FNDA:1,_ZN5blaze78BlazercImportTest_DoubleTryImportWithWorkspaceRelativeSyntaxCauseAWarning_TestD2Ev
FNDA:1,_ZN5blaze80GetRcFileTest_GetRcFilesRespectsNoWorkspaceRcAndNoSystemAndNoHomeRcCombined_Test8TestBodyEv
FNDA:1,_ZN5blaze80GetRcFileTest_GetRcFilesRespectsNoWorkspaceRcAndNoSystemAndNoHomeRcCombined_TestC2Ev
FNDA:1,_ZN5blaze80GetRcFileTest_GetRcFilesRespectsNoWorkspaceRcAndNoSystemAndNoHomeRcCombined_TestD0Ev
FNDA:1,_ZN5blaze80GetRcFileTest_GetRcFilesRespectsNoWorkspaceRcAndNoSystemAndNoHomeRcCombined_TestD2Ev
FNDA:1,_ZN5blaze80ParseOptionsTest_IncorrectWorkspaceBazelrcIgnoredWhenNoWorkspaceRcIsPresent_Test8TestBodyEv
FNDA:1,_ZN5blaze80ParseOptionsTest_IncorrectWorkspaceBazelrcIgnoredWhenNoWorkspaceRcIsPresent_TestC2Ev
FNDA:1,_ZN5blaze80ParseOptionsTest_IncorrectWorkspaceBazelrcIgnoredWhenNoWorkspaceRcIsPresent_TestD0Ev
FNDA:1,_ZN5blaze80ParseOptionsTest_IncorrectWorkspaceBazelrcIgnoredWhenNoWorkspaceRcIsPresent_TestD2Ev
FNDA:4,_ZNK5blaze10RcFileTest15SetUpHomeRcFileERKNSt7__cxx1112basic_stringIcSt11char_traitsIcESaIcEEEPS6_
FNDA:8,_ZNK5blaze10RcFileTest17SetUpSystemRcFileERKNSt7__cxx1112basic_stringIcSt11char_traitsIcESaIcEEEPS6_
FNDA:30,_ZNK5blaze10RcFileTest20SetUpWorkspaceRcFileERKNSt7__cxx1112basic_stringIcSt11char_traitsIcESaIcEEEPS6_
FNDA:1,_ZNK5blaze10RcFileTest34SetUpLegacyMasterRcFileInWorkspaceERKNSt7__cxx1112basic_stringIcSt11char_traitsIcESaIcEEEPS6_
FNDA:1,_ZNK5blaze10RcFileTest38SetUpLegacyMasterRcFileAlongsideBinaryERKNSt7__cxx1112basic_stringIcSt11char_traitsIcESaIcEEEPS6_
FNDA:0,_ZNK5blaze31CanonicalSourcePathsAreMatcherPINSt7__cxx1112basic_stringIcSt11char_traitsIcESaIcEEEE10gmock_ImplIRKNS_6RcFileEE10DescribeToEPSo
FNDA:7,_ZNK5blaze31CanonicalSourcePathsAreMatcherPINSt7__cxx1112basic_stringIcSt11char_traitsIcESaIcEEEE10gmock_ImplIRKNS_6RcFileEE15MatchAndExplainESB_PN7testing19MatchResultListenerE
FNDA:0,_ZNK5blaze31CanonicalSourcePathsAreMatcherPINSt7__cxx1112basic_stringIcSt11char_traitsIcESaIcEEEE10gmock_ImplIRKNS_6RcFileEE17FormatDescriptionEb
FNDA:0,_ZNK5blaze31CanonicalSourcePathsAreMatcherPINSt7__cxx1112basic_stringIcSt11char_traitsIcESaIcEEEE10gmock_ImplIRKNS_6RcFileEE18DescribeNegationToEPSo
FNDA:0,_ZNK5blaze31CanonicalSourcePathsAreMatcherPIPKcE10gmock_ImplIRKNS_6RcFileEE10DescribeToEPSo
FNDA:1,_ZNK5blaze31CanonicalSourcePathsAreMatcherPIPKcE10gmock_ImplIRKNS_6RcFileEE15MatchAndExplainES7_PN7testing19MatchResultListenerE
FNDA:0,_ZNK5blaze31CanonicalSourcePathsAreMatcherPIPKcE10gmock_ImplIRKNS_6RcFileEE17FormatDescriptionB5cxx11Eb
FNDA:0,_ZNK5blaze31CanonicalSourcePathsAreMatcherPIPKcE10gmock_ImplIRKNS_6RcFileEE18DescribeNegationToEPSo
FNF:163
FNH:157
BRDA:54,0,0,-
BRDA:54,0,1,-
BRDA:54,0,2,-
BRDA:54,0,3,-
BRDA:54,0,4,-
BRDA:54,0,5,-
BRDA:54,0,6,-
BRDA:54,0,7,-
BRDA:54,0,8,-
BRDA:54,0,9,-
BRDA:54,0,10,-
BRDA:54,0,11,-
BRDA:54,0,0,-
BRDA:54,0,1,-
BRDA:54,0,2,-
BRDA:54,0,3,-
BRDA:54,0,4,-
BRDA:54,0,5,-
BRDA:54,0,6,-
BRDA:54,0,7,-
BRDA:54,0,8,-
BRDA:54,0,9,-
BRDA:54,0,0,-
BRDA:54,0,1,-
BRDA:54,0,0,-
BRDA:54,0,1,-
BRDA:54,0,0,-
BRDA:54,0,1,-
BRDA:54,0,0,-
BRDA:54,0,1,-
BRDA:54,0,0,7
BRDA:54,0,1,0
BRDA:55,0,0,7
BRDA:55,0,1,0
BRDA:55,0,0,1
BRDA:55,0,1,0
BRDA:62,0,0,34
BRDA:62,0,1,0
BRDA:62,0,2,34
BRDA:62,0,3,0
BRDA:62,0,4,34
BRDA:62,0,5,0
BRDA:62,0,6,34
BRDA:62,0,7,0
BRDA:64,0,0,34
BRDA:64,0,1,0
BRDA:64,0,2,34
BRDA:64,0,3,0
BRDA:64,0,4,34
BRDA:64,0,5,0
BRDA:64,0,6,34
BRDA:64,0,7,0
BRDA:65,0,0,34
BRDA:65,0,1,0
BRDA:65,0,2,34
BRDA:65,0,3,0
BRDA:65,0,4,34
BRDA:65,0,5,0
BRDA:65,0,6,34
BRDA:65,0,7,0
BRDA:66,0,0,34
BRDA:66,0,1,0
BRDA:66,0,2,34
BRDA:66,0,3,0
BRDA:67,0,0,34
BRDA:67,0,1,0
BRDA:67,0,2,34
BRDA:67,0,3,0
BRDA:68,0,0,34
BRDA:68,0,1,0
BRDA:68,0,2,34
BRDA:68,0,3,0
BRDA:69,0,0,34
BRDA:69,0,1,0
BRDA:72,0,0,34
BRDA:72,0,1,0
BRDA:72,0,2,0
BRDA:72,0,3,34
BRDA:72,0,4,0
BRDA:72,0,5,0
BRDA:72,0,6,0
BRDA:72,0,7,0
BRDA:72,0,8,0
BRDA:72,0,9,0
BRDA:72,0,10,0
BRDA:72,0,11,0
BRDA:72,0,12,34
BRDA:72,0,13,0
BRDA:73,0,0,34
BRDA:73,0,1,0
BRDA:73,0,2,0
BRDA:73,0,3,34
BRDA:73,0,4,0
BRDA:73,0,5,0
BRDA:73,0,6,0
BRDA:73,0,7,0
BRDA:73,0,8,0
BRDA:73,0,9,0
BRDA:73,0,10,0
BRDA:73,0,11,0
BRDA:73,0,12,34
BRDA:73,0,13,0
BRDA:74,0,0,34
BRDA:74,0,1,0
BRDA:74,0,2,0
BRDA:74,0,3,34
BRDA:74,0,4,0
BRDA:74,0,5,0
BRDA:74,0,6,0
BRDA:74,0,7,0
BRDA:74,0,8,0
BRDA:74,0,9,0
BRDA:74,0,10,0
BRDA:74,0,11,0
BRDA:74,0,12,34
BRDA:74,0,13,0
BRDA:75,0,0,34
BRDA:75,0,1,0
BRDA:75,0,2,0
BRDA:75,0,3,34
BRDA:75,0,4,0
BRDA:75,0,5,0
BRDA:75,0,6,0
BRDA:75,0,7,0
BRDA:75,0,8,0
BRDA:75,0,9,0
BRDA:75,0,10,0
BRDA:75,0,11,0
BRDA:75,0,12,34
BRDA:75,0,13,0
BRDA:79,0,0,34
BRDA:79,0,1,0
BRDA:79,0,2,0
BRDA:79,0,3,34
BRDA:79,0,4,0
BRDA:79,0,5,0
BRDA:79,0,6,0
BRDA:79,0,7,0
BRDA:79,0,8,0
BRDA:79,0,9,0
BRDA:79,0,10,34
BRDA:79,0,11,0
BRDA:92,0,0,34
BRDA:92,0,1,0
BRDA:92,0,2,0
BRDA:92,0,3,34
BRDA:92,0,4,0
BRDA:92,0,5,0
BRDA:92,0,6,0
BRDA:92,0,7,0
BRDA:92,0,8,0
BRDA:92,0,9,0
BRDA:92,0,10,0
BRDA:92,0,11,0
BRDA:92,0,12,34
BRDA:92,0,13,0
BRDA:93,0,0,34
BRDA:93,0,1,0
BRDA:96,0,0,34
BRDA:96,0,1,0
BRDA:97,0,0,34
BRDA:97,0,1,0
BRDA:97,0,2,34
BRDA:97,0,3,0
BRDA:106,0,0,34
BRDA:106,0,1,0
BRDA:107,0,0,54
BRDA:107,0,1,34
BRDA:108,0,0,54
BRDA:108,0,1,0
BRDA:110,0,0,34
BRDA:110,0,1,0
BRDA:111,0,0,62
BRDA:111,0,1,34
BRDA:112,0,0,62
BRDA:112,0,1,0
BRDA:114,0,0,34
BRDA:114,0,1,0
BRDA:115,0,0,66
BRDA:115,0,1,34
BRDA:116,0,0,66
BRDA:116,0,1,0
BRDA:118,0,0,34
BRDA:118,0,1,0
BRDA:119,0,0,67
BRDA:119,0,1,34
BRDA:120,0,0,67
BRDA:120,0,1,0
BRDA:127,0,0,8
BRDA:127,0,1,0
BRDA:127,0,2,8
BRDA:127,0,3,0
BRDA:127,0,4,8
BRDA:127,0,5,0
BRDA:129,0,0,8
BRDA:129,0,1,0
BRDA:129,0,2,8
BRDA:129,0,3,0
BRDA:130,0,0,8
BRDA:130,0,1,0
BRDA:139,0,0,30
BRDA:139,0,1,0
BRDA:139,0,2,30
BRDA:139,0,3,0
BRDA:140,0,0,30
BRDA:140,0,1,0
BRDA:140,0,2,30
BRDA:140,0,3,0
BRDA:141,0,0,30
BRDA:141,0,1,0
BRDA:149,0,0,4
BRDA:149,0,1,0
BRDA:149,0,2,4
BRDA:149,0,3,0
BRDA:150,0,0,4
BRDA:150,0,1,0
BRDA:150,0,2,4
BRDA:150,0,3,0
BRDA:151,0,0,4
BRDA:151,0,1,0
BRDA:159,0,0,1
BRDA:159,0,1,0
BRDA:159,0,2,1
BRDA:159,0,3,0
BRDA:161,0,0,1
BRDA:161,0,1,0
BRDA:161,0,2,1
BRDA:161,0,3,0
BRDA:162,0,0,1
BRDA:162,0,1,0
BRDA:162,0,2,1
BRDA:162,0,3,0
BRDA:162,0,4,1
BRDA:162,0,5,0
BRDA:163,0,0,1
BRDA:163,0,1,0
BRDA:163,0,2,1
BRDA:163,0,3,0
BRDA:164,0,0,1
BRDA:164,0,1,0
BRDA:173,0,0,1
BRDA:173,0,1,0
BRDA:173,0,2,1
BRDA:173,0,3,0
BRDA:174,0,0,1
BRDA:174,0,1,0
BRDA:174,0,2,1
BRDA:174,0,3,0
BRDA:175,0,0,1
BRDA:175,0,1,0
BRDA:195,0,0,1
BRDA:195,0,1,0
BRDA:195,0,2,1
BRDA:195,0,3,0
BRDA:195,0,4,0
BRDA:195,0,5,1
BRDA:195,0,6,0
BRDA:195,0,7,0
BRDA:195,0,8,0
BRDA:195,0,9,0
BRDA:195,0,10,0
BRDA:195,0,11,0
BRDA:195,0,12,0
BRDA:195,0,13,0
BRDA:195,0,14,1
BRDA:195,0,15,0
BRDA:197,0,0,1
BRDA:197,0,1,0
BRDA:197,0,2,1
BRDA:197,0,3,0
BRDA:197,0,4,0
BRDA:197,0,5,1
BRDA:197,0,6,0
BRDA:197,0,7,0
BRDA:197,0,8,0
BRDA:197,0,9,0
BRDA:197,0,10,0
BRDA:197,0,11,0
BRDA:197,0,12,0
BRDA:197,0,13,0
BRDA:197,0,14,1
BRDA:197,0,15,0
BRDA:199,0,0,1
BRDA:199,0,1,0
BRDA:199,0,2,1
BRDA:199,0,3,0
BRDA:199,0,4,0
BRDA:199,0,5,1
BRDA:199,0,6,0
BRDA:199,0,7,0
BRDA:199,0,8,0
BRDA:199,0,9,0
BRDA:199,0,10,0
BRDA:199,0,11,0
BRDA:199,0,12,0
BRDA:199,0,13,0
BRDA:199,0,14,1
BRDA:199,0,15,0
BRDA:201,0,0,1
BRDA:201,0,1,0
BRDA:201,0,2,1
BRDA:201,0,3,0
BRDA:202,0,0,1
BRDA:202,0,1,0
BRDA:205,0,0,1
BRDA:205,0,1,0
BRDA:207,0,0,1
BRDA:207,0,1,0
BRDA:207,0,2,0
BRDA:207,0,3,1
BRDA:207,0,4,0
BRDA:207,0,5,0
BRDA:207,0,6,0
BRDA:207,0,7,0
BRDA:207,0,8,0
BRDA:207,0,9,0
BRDA:208,0,0,1
BRDA:208,0,1,0
BRDA:208,0,2,0
BRDA:208,0,3,1
BRDA:208,0,4,0
BRDA:208,0,5,0
BRDA:208,0,6,0
BRDA:208,0,7,0
BRDA:208,0,8,0
BRDA:208,0,9,0
BRDA:212,0,0,1
BRDA:212,0,1,0
BRDA:212,0,2,1
BRDA:212,0,3,0
BRDA:212,0,4,1
BRDA:212,0,5,0
BRDA:212,0,6,1
BRDA:212,0,7,0
BRDA:212,0,8,1
BRDA:212,0,9,0
BRDA:212,0,10,1
BRDA:212,0,11,0
BRDA:212,0,12,1
BRDA:212,0,13,0
BRDA:212,0,14,1
BRDA:212,0,15,0
BRDA:212,0,16,1
BRDA:212,0,17,0
BRDA:212,0,18,1
BRDA:212,0,19,0
BRDA:212,0,20,1
BRDA:212,0,21,0
BRDA:212,0,22,1
BRDA:212,0,23,0
BRDA:212,0,24,0
BRDA:212,0,25,1
BRDA:212,0,26,0
BRDA:212,0,27,0
BRDA:212,0,28,0
BRDA:212,0,29,0
BRDA:212,0,30,0
BRDA:212,0,31,0
BRDA:216,0,0,1
BRDA:216,0,1,0
BRDA:220,0,0,1
BRDA:220,0,1,0
BRDA:220,0,2,1
BRDA:220,0,3,0
BRDA:220,0,4,0
BRDA:220,0,5,1
BRDA:220,0,6,0
BRDA:220,0,7,0
BRDA:220,0,8,0
BRDA:220,0,9,0
BRDA:220,0,10,0
BRDA:220,0,11,0
BRDA:220,0,12,0
BRDA:220,0,13,0
BRDA:220,0,14,1
BRDA:220,0,15,0
BRDA:222,0,0,1
BRDA:222,0,1,0
BRDA:222,0,2,1
BRDA:222,0,3,0
BRDA:222,0,4,0
BRDA:222,0,5,1
BRDA:222,0,6,0
BRDA:222,0,7,0
BRDA:222,0,8,0
BRDA:222,0,9,0
BRDA:222,0,10,0
BRDA:222,0,11,0
BRDA:222,0,12,0
BRDA:222,0,13,0
BRDA:222,0,14,1
BRDA:222,0,15,0
BRDA:224,0,0,1
BRDA:224,0,1,0
BRDA:224,0,2,1
BRDA:224,0,3,0
BRDA:224,0,4,0
BRDA:224,0,5,1
BRDA:224,0,6,0
BRDA:224,0,7,0
BRDA:224,0,8,0
BRDA:224,0,9,0
BRDA:224,0,10,0
BRDA:224,0,11,0
BRDA:224,0,12,0
BRDA:224,0,13,0
BRDA:224,0,14,1
BRDA:224,0,15,0
BRDA:227,0,0,1
BRDA:227,0,1,0
BRDA:227,0,2,1
BRDA:227,0,3,0
BRDA:227,0,4,1
BRDA:227,0,5,0
BRDA:227,0,6,1
BRDA:227,0,7,0
BRDA:228,0,0,1
BRDA:228,0,1,0
BRDA:231,0,0,1
BRDA:231,0,1,0
BRDA:233,0,0,1
BRDA:233,0,1,0
BRDA:233,0,2,0
BRDA:233,0,3,1
BRDA:233,0,4,0
BRDA:233,0,5,0
BRDA:233,0,6,0
BRDA:233,0,7,0
BRDA:233,0,8,0
BRDA:233,0,9,0
BRDA:234,0,0,1
BRDA:234,0,1,0
BRDA:234,0,2,0
BRDA:234,0,3,1
BRDA:234,0,4,0
BRDA:234,0,5,0
BRDA:234,0,6,0
BRDA:234,0,7,0
BRDA:234,0,8,0
BRDA:234,0,9,0
BRDA:236,0,0,1
BRDA:236,0,1,0
BRDA:236,0,2,1
BRDA:236,0,3,0
BRDA:236,0,4,1
BRDA:236,0,5,0
BRDA:236,0,6,1
BRDA:236,0,7,0
BRDA:236,0,8,1
BRDA:236,0,9,0
BRDA:236,0,10,1
BRDA:236,0,11,0
BRDA:236,0,12,1
BRDA:236,0,13,0
BRDA:236,0,14,1
BRDA:236,0,15,0
BRDA:236,0,16,1
BRDA:236,0,17,0
BRDA:236,0,18,0
BRDA:236,0,19,1
BRDA:236,0,20,0
BRDA:236,0,21,0
BRDA:236,0,22,0
BRDA:236,0,23,0
BRDA:236,0,24,0
BRDA:236,0,25,0
BRDA:239,0,0,1
BRDA:239,0,1,0
BRDA:243,0,0,1
BRDA:243,0,1,0
BRDA:243,0,2,1
BRDA:243,0,3,0
BRDA:243,0,4,0
BRDA:243,0,5,1
BRDA:243,0,6,0
BRDA:243,0,7,0
BRDA:243,0,8,0
BRDA:243,0,9,0
BRDA:243,0,10,0
BRDA:243,0,11,0
BRDA:243,0,12,0
BRDA:243,0,13,0
BRDA:243,0,14,1
BRDA:243,0,15,0
BRDA:245,0,0,1
BRDA:245,0,1,0
BRDA:245,0,2,1
BRDA:245,0,3,0
BRDA:245,0,4,0
BRDA:245,0,5,1
BRDA:245,0,6,0
BRDA:245,0,7,0
BRDA:245,0,8,0
BRDA:245,0,9,0
BRDA:245,0,10,0
BRDA:245,0,11,0
BRDA:245,0,12,0
BRDA:245,0,13,0
BRDA:245,0,14,1
BRDA:245,0,15,0
BRDA:247,0,0,1
BRDA:247,0,1,0
BRDA:247,0,2,1
BRDA:247,0,3,0
BRDA:247,0,4,0
BRDA:247,0,5,1
BRDA:247,0,6,0
BRDA:247,0,7,0
BRDA:247,0,8,0
BRDA:247,0,9,0
BRDA:247,0,10,0
BRDA:247,0,11,0
BRDA:247,0,12,0
BRDA:247,0,13,0
BRDA:247,0,14,1
BRDA:247,0,15,0
BRDA:250,0,0,1
BRDA:250,0,1,0
BRDA:250,0,2,1
BRDA:250,0,3,0
BRDA:250,0,4,1
BRDA:250,0,5,0
BRDA:250,0,6,1
BRDA:250,0,7,0
BRDA:251,0,0,1
BRDA:251,0,1,0
BRDA:254,0,0,1
BRDA:254,0,1,0
BRDA:256,0,0,1
BRDA:256,0,1,0
BRDA:256,0,2,0
BRDA:256,0,3,1
BRDA:256,0,4,0
BRDA:256,0,5,0
BRDA:256,0,6,0
BRDA:256,0,7,0
BRDA:256,0,8,0
BRDA:256,0,9,0
BRDA:257,0,0,1
BRDA:257,0,1,0
BRDA:257,0,2,0
BRDA:257,0,3,1
BRDA:257,0,4,0
BRDA:257,0,5,0
BRDA:257,0,6,0
BRDA:257,0,7,0
BRDA:257,0,8,0
BRDA:257,0,9,0
BRDA:259,0,0,1
BRDA:259,0,1,0
BRDA:259,0,2,1
BRDA:259,0,3,0
BRDA:259,0,4,1
BRDA:259,0,5,0
BRDA:259,0,6,1
BRDA:259,0,7,0
BRDA:259,0,8,1
BRDA:259,0,9,0
BRDA:259,0,10,1
BRDA:259,0,11,0
BRDA:259,0,12,1
BRDA:259,0,13,0
BRDA:259,0,14,1
BRDA:259,0,15,0
BRDA:259,0,16,1
BRDA:259,0,17,0
BRDA:259,0,18,0
BRDA:259,0,19,1
BRDA:259,0,20,0
BRDA:259,0,21,0
BRDA:259,0,22,0
BRDA:259,0,23,0
BRDA:259,0,24,0
BRDA:259,0,25,0
BRDA:262,0,0,1
BRDA:262,0,1,0
BRDA:267,0,0,1
BRDA:267,0,1,0
BRDA:267,0,2,1
BRDA:267,0,3,0
BRDA:267,0,4,0
BRDA:267,0,5,1
BRDA:267,0,6,0
BRDA:267,0,7,0
BRDA:267,0,8,0
BRDA:267,0,9,0
BRDA:267,0,10,0
BRDA:267,0,11,0
BRDA:267,0,12,0
BRDA:267,0,13,0
BRDA:267,0,14,1
BRDA:267,0,15,0
BRDA:269,0,0,1
BRDA:269,0,1,0
BRDA:269,0,2,1
BRDA:269,0,3,0
BRDA:269,0,4,0
BRDA:269,0,5,1
BRDA:269,0,6,0
BRDA:269,0,7,0
BRDA:269,0,8,0
BRDA:269,0,9,0
BRDA:269,0,10,0
BRDA:269,0,11,0
BRDA:269,0,12,0
BRDA:269,0,13,0
BRDA:269,0,14,1
BRDA:269,0,15,0
BRDA:271,0,0,1
BRDA:271,0,1,0
BRDA:271,0,2,1
BRDA:271,0,3,0
BRDA:271,0,4,0
BRDA:271,0,5,1
BRDA:271,0,6,0
BRDA:271,0,7,0
BRDA:271,0,8,0
BRDA:271,0,9,0
BRDA:271,0,10,0
BRDA:271,0,11,0
BRDA:271,0,12,0
BRDA:271,0,13,0
BRDA:271,0,14,1
BRDA:271,0,15,0
BRDA:275,0,0,1
BRDA:275,0,1,0
BRDA:275,0,2,1
BRDA:275,0,3,0
BRDA:275,0,4,1
BRDA:275,0,5,0
BRDA:275,0,6,1
BRDA:275,0,7,0
BRDA:275,0,8,1
BRDA:275,0,9,0
BRDA:275,0,10,1
BRDA:275,0,11,0
BRDA:276,0,0,1
BRDA:276,0,1,0
BRDA:279,0,0,1
BRDA:279,0,1,0
BRDA:281,0,0,1
BRDA:281,0,1,0
BRDA:281,0,2,0
BRDA:281,0,3,1
BRDA:281,0,4,0
BRDA:281,0,5,0
BRDA:281,0,6,0
BRDA:281,0,7,0
BRDA:281,0,8,0
BRDA:281,0,9,0
BRDA:282,0,0,1
BRDA:282,0,1,0
BRDA:282,0,2,0
BRDA:282,0,3,1
BRDA:282,0,4,0
BRDA:282,0,5,0
BRDA:282,0,6,0
BRDA:282,0,7,0
BRDA:282,0,8,0
BRDA:282,0,9,0
BRDA:284,0,0,1
BRDA:284,0,1,0
BRDA:284,0,2,1
BRDA:284,0,3,0
BRDA:284,0,4,1
BRDA:284,0,5,0
BRDA:284,0,6,0
BRDA:284,0,7,1
BRDA:284,0,8,0
BRDA:284,0,9,0
BRDA:284,0,10,0
BRDA:284,0,11,0
BRDA:284,0,12,0
BRDA:284,0,13,0
BRDA:285,0,0,1
BRDA:285,0,1,0
BRDA:289,0,0,1
BRDA:289,0,1,0
BRDA:289,0,2,1
BRDA:289,0,3,0
BRDA:289,0,4,0
BRDA:289,0,5,1
BRDA:289,0,6,0
BRDA:289,0,7,0
BRDA:289,0,8,0
BRDA:289,0,9,0
BRDA:289,0,10,0
BRDA:289,0,11,0
BRDA:289,0,12,0
BRDA:289,0,13,0
BRDA:289,0,14,1
BRDA:289,0,15,0
BRDA:291,0,0,1
BRDA:291,0,1,0
BRDA:291,0,2,1
BRDA:291,0,3,0
BRDA:291,0,4,0
BRDA:291,0,5,1
BRDA:291,0,6,0
BRDA:291,0,7,0
BRDA:291,0,8,0
BRDA:291,0,9,0
BRDA:291,0,10,0
BRDA:291,0,11,0
BRDA:291,0,12,0
BRDA:291,0,13,0
BRDA:291,0,14,1
BRDA:291,0,15,0
BRDA:293,0,0,1
BRDA:293,0,1,0
BRDA:293,0,2,1
BRDA:293,0,3,0
BRDA:294,0,0,1
BRDA:294,0,1,0
BRDA:297,0,0,1
BRDA:297,0,1,0
BRDA:299,0,0,1
BRDA:299,0,1,0
BRDA:301,0,0,1
BRDA:301,0,1,0
BRDA:303,0,0,1
BRDA:303,0,1,0
BRDA:303,0,2,0
BRDA:303,0,3,1
BRDA:303,0,4,0
BRDA:303,0,5,0
BRDA:303,0,6,0
BRDA:303,0,7,0
BRDA:303,0,8,0
BRDA:303,0,9,0
BRDA:304,0,0,1
BRDA:304,0,1,0
BRDA:304,0,2,0
BRDA:304,0,3,1
BRDA:304,0,4,0
BRDA:304,0,5,0
BRDA:304,0,6,0
BRDA:304,0,7,0
BRDA:304,0,8,0
BRDA:304,0,9,0
BRDA:308,0,0,1
BRDA:308,0,1,0
BRDA:308,0,2,1
BRDA:308,0,3,0
BRDA:308,0,4,1
BRDA:308,0,5,0
BRDA:308,0,6,0
BRDA:308,0,7,1
BRDA:308,0,8,0
BRDA:308,0,9,0
BRDA:308,0,10,0
BRDA:308,0,11,0
BRDA:308,0,12,0
BRDA:308,0,13,0
BRDA:310,0,0,1
BRDA:310,0,1,0
BRDA:310,0,2,1
BRDA:310,0,3,0
BRDA:310,0,4,1
BRDA:310,0,5,0
BRDA:310,0,6,0
BRDA:310,0,7,1
BRDA:310,0,8,0
BRDA:310,0,9,0
BRDA:310,0,10,0
BRDA:310,0,11,0
BRDA:310,0,12,0
BRDA:310,0,13,0
BRDA:311,0,0,1
BRDA:311,0,1,0
BRDA:311,0,2,1
BRDA:311,0,3,0
BRDA:311,0,4,1
BRDA:311,0,5,0
BRDA:311,0,6,0
BRDA:311,0,7,1
BRDA:311,0,8,0
BRDA:311,0,9,0
BRDA:311,0,10,0
BRDA:311,0,11,0
BRDA:311,0,12,0
BRDA:311,0,13,0
BRDA:312,0,0,1
BRDA:312,0,1,0
BRDA:316,0,0,1
BRDA:316,0,1,0
BRDA:316,0,2,1
BRDA:316,0,3,0
BRDA:317,0,0,1
BRDA:317,0,1,0
BRDA:317,0,2,1
BRDA:317,0,3,0
BRDA:317,0,4,0
BRDA:317,0,5,1
BRDA:317,0,6,0
BRDA:317,0,7,0
BRDA:317,0,8,0
BRDA:317,0,9,0
BRDA:317,0,10,0
BRDA:317,0,11,0
BRDA:317,0,12,0
BRDA:317,0,13,0
BRDA:318,0,0,1
BRDA:318,0,1,0
BRDA:319,0,0,1
BRDA:319,0,1,0
BRDA:319,0,2,1
BRDA:319,0,3,0
BRDA:319,0,4,0
BRDA:319,0,5,1
BRDA:319,0,6,0
BRDA:319,0,7,0
BRDA:319,0,8,0
BRDA:319,0,9,0
BRDA:319,0,10,0
BRDA:319,0,11,0
BRDA:319,0,12,0
BRDA:319,0,13,0
BRDA:319,0,14,1
BRDA:319,0,15,0
BRDA:323,0,0,1
BRDA:323,0,1,0
BRDA:323,0,2,1
BRDA:323,0,3,0
BRDA:323,0,4,1
BRDA:323,0,5,0
BRDA:323,0,6,1
BRDA:323,0,7,0
BRDA:324,0,0,1
BRDA:324,0,1,0
BRDA:327,0,0,1
BRDA:327,0,1,0
BRDA:329,0,0,1
BRDA:329,0,1,0
BRDA:329,0,2,0
BRDA:329,0,3,1
BRDA:329,0,4,0
BRDA:329,0,5,0
BRDA:329,0,6,0
BRDA:329,0,7,0
BRDA:329,0,8,0
BRDA:329,0,9,0
BRDA:330,0,0,1
BRDA:330,0,1,0
BRDA:330,0,2,0
BRDA:330,0,3,1
BRDA:330,0,4,0
BRDA:330,0,5,0
BRDA:330,0,6,0
BRDA:330,0,7,0
BRDA:330,0,8,0
BRDA:330,0,9,0
BRDA:334,0,0,1
BRDA:334,0,1,0
BRDA:334,0,2,0
BRDA:334,0,3,1
BRDA:334,0,4,0
BRDA:334,0,5,0
BRDA:334,0,6,0
BRDA:334,0,7,0
BRDA:334,0,8,0
BRDA:334,0,9,0
BRDA:334,0,10,1
BRDA:334,0,11,0
BRDA:335,0,0,1
BRDA:335,0,1,0
BRDA:335,0,2,0
BRDA:335,0,3,1
BRDA:335,0,4,0
BRDA:335,0,5,0
BRDA:335,0,6,0
BRDA:335,0,7,0
BRDA:335,0,8,0
BRDA:335,0,9,0
BRDA:335,0,10,1
BRDA:335,0,11,0
BRDA:336,0,0,1
BRDA:336,0,1,0
BRDA:336,0,2,1
BRDA:336,0,3,0
BRDA:336,0,4,1
BRDA:336,0,5,0
BRDA:336,0,6,0
BRDA:336,0,7,1
BRDA:336,0,8,0
BRDA:336,0,9,0
BRDA:336,0,10,0
BRDA:336,0,11,0
BRDA:336,0,12,0
BRDA:336,0,13,0
BRDA:338,0,0,1
BRDA:338,0,1,0
BRDA:345,0,0,1
BRDA:345,0,1,0
BRDA:345,0,2,1
BRDA:345,0,3,0
BRDA:345,0,4,1
BRDA:345,0,5,0
BRDA:345,0,6,1
BRDA:345,0,7,0
BRDA:345,0,8,1
BRDA:345,0,9,0
BRDA:345,0,10,1
BRDA:345,0,11,0
BRDA:345,0,12,1
BRDA:345,0,13,0
BRDA:346,0,0,1
BRDA:346,0,1,0
BRDA:349,0,0,1
BRDA:349,0,1,0
BRDA:352,0,0,1
BRDA:352,0,1,0
BRDA:352,0,2,0
BRDA:352,0,3,1
BRDA:352,0,4,0
BRDA:352,0,5,0
BRDA:352,0,6,0
BRDA:352,0,7,0
BRDA:352,0,8,0
BRDA:352,0,9,0
BRDA:353,0,0,1
BRDA:353,0,1,0
BRDA:353,0,2,0
BRDA:353,0,3,1
BRDA:353,0,4,0
BRDA:353,0,5,0
BRDA:353,0,6,0
BRDA:353,0,7,0
BRDA:353,0,8,0
BRDA:353,0,9,0
BRDA:355,0,0,1
BRDA:355,0,1,0
BRDA:355,0,2,1
BRDA:355,0,3,0
BRDA:355,0,4,1
BRDA:355,0,5,0
BRDA:355,0,6,1
BRDA:355,0,7,0
BRDA:355,0,8,1
BRDA:355,0,9,0
BRDA:355,0,10,0
BRDA:355,0,11,1
BRDA:355,0,12,0
BRDA:355,0,13,0
BRDA:355,0,14,0
BRDA:355,0,15,0
BRDA:355,0,16,0
BRDA:355,0,17,0
BRDA:367,0,0,21
BRDA:367,0,1,0
BRDA:369,0,0,21
BRDA:369,0,1,0
BRDA:370,0,0,21
BRDA:370,0,1,0
BRDA:372,0,0,21
BRDA:372,0,1,0
BRDA:372,0,2,0
BRDA:372,0,3,21
BRDA:372,0,4,0
BRDA:372,0,5,0
BRDA:372,0,6,0
BRDA:372,0,7,0
BRDA:372,0,8,0
BRDA:372,0,9,0
BRDA:372,0,10,0
BRDA:372,0,11,0
BRDA:372,0,12,21
BRDA:372,0,13,0
BRDA:373,0,0,21
BRDA:373,0,1,0
BRDA:373,0,2,21
BRDA:373,0,3,0
BRDA:373,0,4,21
BRDA:373,0,5,0
BRDA:373,0,6,0
BRDA:373,0,7,21
BRDA:373,0,8,0
BRDA:373,0,9,0
BRDA:373,0,10,0
BRDA:373,0,11,0
BRDA:373,0,12,0
BRDA:373,0,13,0
BRDA:373,0,14,21
BRDA:373,0,15,0
BRDA:374,0,0,21
BRDA:374,0,1,0
BRDA:374,0,2,21
BRDA:374,0,3,0
BRDA:374,0,4,21
BRDA:374,0,5,0
BRDA:374,0,6,0
BRDA:374,0,7,21
BRDA:374,0,8,0
BRDA:374,0,9,0
BRDA:374,0,10,0
BRDA:374,0,11,0
BRDA:374,0,12,0
BRDA:374,0,13,0
BRDA:374,0,14,21
BRDA:374,0,15,0
BRDA:375,0,0,21
BRDA:375,0,1,0
BRDA:375,0,2,21
BRDA:375,0,3,0
BRDA:382,0,0,1
BRDA:382,0,1,0
BRDA:382,0,2,1
BRDA:382,0,3,0
BRDA:382,0,4,0
BRDA:382,0,5,1
BRDA:382,0,6,0
BRDA:382,0,7,0
BRDA:382,0,8,0
BRDA:382,0,9,0
BRDA:382,0,10,0
BRDA:382,0,11,0
BRDA:382,0,12,0
BRDA:382,0,13,0
BRDA:382,0,14,1
BRDA:382,0,15,0
BRDA:384,0,0,1
BRDA:384,0,1,0
BRDA:384,0,2,1
BRDA:384,0,3,0
BRDA:384,0,4,0
BRDA:384,0,5,1
BRDA:384,0,6,0
BRDA:384,0,7,0
BRDA:384,0,8,0
BRDA:384,0,9,0
BRDA:384,0,10,0
BRDA:384,0,11,0
BRDA:384,0,12,0
BRDA:384,0,13,0
BRDA:384,0,14,1
BRDA:384,0,15,0
BRDA:386,0,0,1
BRDA:386,0,1,0
BRDA:386,0,2,1
BRDA:386,0,3,0
BRDA:387,0,0,1
BRDA:387,0,1,0
BRDA:387,0,2,1
BRDA:387,0,3,0
BRDA:387,0,4,0
BRDA:387,0,5,1
BRDA:387,0,6,0
BRDA:387,0,7,0
BRDA:387,0,8,0
BRDA:387,0,9,0
BRDA:387,0,10,0
BRDA:387,0,11,0
BRDA:387,0,12,0
BRDA:387,0,13,0
BRDA:388,0,0,1
BRDA:388,0,1,0
BRDA:389,0,0,1
BRDA:389,0,1,0
BRDA:389,0,2,1
BRDA:389,0,3,0
BRDA:389,0,4,0
BRDA:389,0,5,1
BRDA:389,0,6,0
BRDA:389,0,7,0
BRDA:389,0,8,0
BRDA:389,0,9,0
BRDA:389,0,10,0
BRDA:389,0,11,0
BRDA:389,0,12,0
BRDA:389,0,13,0
BRDA:389,0,14,1
BRDA:389,0,15,0
BRDA:392,0,0,1
BRDA:392,0,1,0
BRDA:392,0,2,1
BRDA:392,0,3,0
BRDA:392,0,4,1
BRDA:392,0,5,0
BRDA:392,0,6,1
BRDA:392,0,7,0
BRDA:396,0,0,1
BRDA:396,0,1,0
BRDA:396,0,2,1
BRDA:396,0,3,0
BRDA:396,0,4,0
BRDA:396,0,5,1
BRDA:396,0,6,0
BRDA:396,0,7,0
BRDA:396,0,8,0
BRDA:396,0,9,0
BRDA:396,0,10,0
BRDA:396,0,11,0
BRDA:398,0,0,1
BRDA:398,0,1,0
BRDA:398,0,2,0
BRDA:398,0,3,1
BRDA:398,0,4,0
BRDA:398,0,5,0
BRDA:398,0,6,0
BRDA:398,0,7,0
BRDA:398,0,8,0
BRDA:398,0,9,0
BRDA:398,0,10,1
BRDA:398,0,11,0
BRDA:401,0,0,1
BRDA:401,0,1,0
BRDA:402,0,0,1
BRDA:402,0,1,0
BRDA:403,0,0,1
BRDA:403,0,1,0
BRDA:405,0,0,1
BRDA:405,0,1,0
BRDA:405,0,2,0
BRDA:405,0,3,1
BRDA:405,0,4,0
BRDA:405,0,5,0
BRDA:405,0,6,0
BRDA:405,0,7,0
BRDA:405,0,8,0
BRDA:405,0,9,0
BRDA:406,0,0,1
BRDA:406,0,1,0
BRDA:410,0,0,1
BRDA:410,0,1,0
BRDA:410,0,2,1
BRDA:410,0,3,0
BRDA:410,0,4,0
BRDA:410,0,5,1
BRDA:410,0,6,0
BRDA:410,0,7,0
BRDA:410,0,8,0
BRDA:410,0,9,0
BRDA:410,0,10,0
BRDA:410,0,11,0
BRDA:410,0,12,0
BRDA:410,0,13,0
BRDA:410,0,14,1
BRDA:410,0,15,0
BRDA:413,0,0,1
BRDA:413,0,1,0
BRDA:413,0,2,1
BRDA:413,0,3,0
BRDA:413,0,4,1
BRDA:413,0,5,0
BRDA:413,0,6,1
BRDA:413,0,7,0
BRDA:413,0,8,1
BRDA:413,0,9,0
BRDA:415,0,0,1
BRDA:415,0,1,0
BRDA:415,0,2,1
BRDA:415,0,3,0
BRDA:415,0,4,0
BRDA:415,0,5,1
BRDA:415,0,6,0
BRDA:415,0,7,0
BRDA:415,0,8,0
BRDA:415,0,9,0
BRDA:415,0,10,0
BRDA:415,0,11,0
BRDA:417,0,0,1
BRDA:417,0,1,0
BRDA:417,0,2,0
BRDA:417,0,3,1
BRDA:417,0,4,0
BRDA:417,0,5,0
BRDA:417,0,6,0
BRDA:417,0,7,0
BRDA:417,0,8,0
BRDA:417,0,9,0
BRDA:420,0,0,1
BRDA:420,0,1,0
BRDA:424,0,0,1
BRDA:424,0,1,0
BRDA:425,0,0,1
BRDA:425,0,1,0
BRDA:426,0,0,1
BRDA:426,0,1,0
BRDA:428,0,0,1
BRDA:428,0,1,0
BRDA:428,0,2,1
BRDA:428,0,3,0
BRDA:428,0,4,1
BRDA:428,0,5,0
BRDA:428,0,6,0
BRDA:428,0,7,1
BRDA:428,0,8,0
BRDA:428,0,9,0
BRDA:428,0,10,0
BRDA:428,0,11,0
BRDA:428,0,12,0
BRDA:428,0,13,0
BRDA:432,0,0,1
BRDA:432,0,1,0
BRDA:438,0,0,1
BRDA:438,0,1,0
BRDA:438,0,2,1
BRDA:438,0,3,0
BRDA:438,0,4,0
BRDA:438,0,5,1
BRDA:438,0,6,0
BRDA:438,0,7,0
BRDA:438,0,8,0
BRDA:438,0,9,0
BRDA:438,0,10,0
BRDA:438,0,11,0
BRDA:438,0,12,0
BRDA:438,0,13,0
BRDA:438,0,14,1
BRDA:438,0,15,0
BRDA:440,0,0,1
BRDA:440,0,1,0
BRDA:440,0,2,1
BRDA:440,0,3,0
BRDA:440,0,4,0
BRDA:440,0,5,1
BRDA:440,0,6,0
BRDA:440,0,7,0
BRDA:440,0,8,0
BRDA:440,0,9,0
BRDA:440,0,10,0
BRDA:440,0,11,0
BRDA:440,0,12,0
BRDA:440,0,13,0
BRDA:440,0,14,1
BRDA:440,0,15,0
BRDA:443,0,0,1
BRDA:443,0,1,0
BRDA:443,0,2,1
BRDA:443,0,3,0
BRDA:444,0,0,1
BRDA:444,0,1,0
BRDA:444,0,2,1
BRDA:444,0,3,0
BRDA:444,0,4,0
BRDA:444,0,5,1
BRDA:444,0,6,0
BRDA:444,0,7,0
BRDA:444,0,8,0
BRDA:444,0,9,0
BRDA:444,0,10,0
BRDA:444,0,11,0
BRDA:444,0,12,0
BRDA:444,0,13,0
BRDA:445,0,0,1
BRDA:445,0,1,0
BRDA:446,0,0,1
BRDA:446,0,1,0
BRDA:446,0,2,1
BRDA:446,0,3,0
BRDA:446,0,4,0
BRDA:446,0,5,1
BRDA:446,0,6,0
BRDA:446,0,7,0
BRDA:446,0,8,0
BRDA:446,0,9,0
BRDA:446,0,10,0
BRDA:446,0,11,0
BRDA:446,0,12,0
BRDA:446,0,13,0
BRDA:447,0,0,1
BRDA:447,0,1,0
BRDA:451,0,0,1
BRDA:451,0,1,0
BRDA:451,0,2,1
BRDA:451,0,3,0
BRDA:451,0,4,1
BRDA:451,0,5,0
BRDA:451,0,6,1
BRDA:451,0,7,0
BRDA:451,0,8,1
BRDA:451,0,9,0
BRDA:455,0,0,1
BRDA:455,0,1,0
BRDA:455,0,2,1
BRDA:455,0,3,0
BRDA:455,0,4,0
BRDA:455,0,5,1
BRDA:455,0,6,0
BRDA:455,0,7,0
BRDA:455,0,8,0
BRDA:455,0,9,0
BRDA:455,0,10,0
BRDA:455,0,11,0
BRDA:457,0,0,1
BRDA:457,0,1,0
BRDA:457,0,2,0
BRDA:457,0,3,1
BRDA:457,0,4,0
BRDA:457,0,5,0
BRDA:457,0,6,0
BRDA:457,0,7,0
BRDA:457,0,8,0
BRDA:457,0,9,0
BRDA:457,0,10,1
BRDA:457,0,11,0
BRDA:460,0,0,1
BRDA:460,0,1,0
BRDA:461,0,0,1
BRDA:461,0,1,0
BRDA:462,0,0,1
BRDA:462,0,1,0
BRDA:464,0,0,1
BRDA:464,0,1,0
BRDA:464,0,2,0
BRDA:464,0,3,1
BRDA:464,0,4,0
BRDA:464,0,5,0
BRDA:464,0,6,0
BRDA:464,0,7,0
BRDA:464,0,8,0
BRDA:464,0,9,0
BRDA:465,0,0,1
BRDA:465,0,1,0
BRDA:469,0,0,1
BRDA:469,0,1,0
BRDA:469,0,2,1
BRDA:469,0,3,0
BRDA:470,0,0,1
BRDA:470,0,1,0
BRDA:470,0,2,1
BRDA:470,0,3,0
BRDA:470,0,4,0
BRDA:470,0,5,1
BRDA:470,0,6,0
BRDA:470,0,7,0
BRDA:470,0,8,0
BRDA:470,0,9,0
BRDA:470,0,10,0
BRDA:470,0,11,0
BRDA:470,0,12,0
BRDA:470,0,13,0
BRDA:471,0,0,1
BRDA:471,0,1,0
BRDA:472,0,0,1
BRDA:472,0,1,0
BRDA:472,0,2,1
BRDA:472,0,3,0
BRDA:472,0,4,0
BRDA:472,0,5,1
BRDA:472,0,6,0
BRDA:472,0,7,0
BRDA:472,0,8,0
BRDA:472,0,9,0
BRDA:472,0,10,0
BRDA:472,0,11,0
BRDA:472,0,12,0
BRDA:472,0,13,0
BRDA:472,0,14,1
BRDA:472,0,15,0
BRDA:476,0,0,1
BRDA:476,0,1,0
BRDA:476,0,2,1
BRDA:476,0,3,0
BRDA:476,0,4,1
BRDA:476,0,5,0
BRDA:476,0,6,1
BRDA:476,0,7,0
BRDA:479,0,0,1
BRDA:479,0,1,0
BRDA:481,0,0,1
BRDA:481,0,1,0
BRDA:481,0,2,1
BRDA:481,0,3,0
BRDA:481,0,4,0
BRDA:481,0,5,1
BRDA:481,0,6,0
BRDA:481,0,7,0
BRDA:481,0,8,0
BRDA:481,0,9,0
BRDA:481,0,10,0
BRDA:481,0,11,0
BRDA:483,0,0,0
BRDA:483,0,1,0
BRDA:483,0,2,1
BRDA:483,0,3,0
BRDA:484,0,0,1
BRDA:484,0,1,0
BRDA:484,0,2,0
BRDA:484,0,3,1
BRDA:484,0,4,0
BRDA:484,0,5,0
BRDA:484,0,6,0
BRDA:484,0,7,0
BRDA:484,0,8,0
BRDA:484,0,9,0
BRDA:484,0,10,1
BRDA:484,0,11,0
BRDA:489,0,0,1
BRDA:489,0,1,0
BRDA:490,0,0,1
BRDA:490,0,1,0
BRDA:491,0,0,1
BRDA:491,0,1,0
BRDA:493,0,0,1
BRDA:493,0,1,0
BRDA:493,0,2,1
BRDA:493,0,3,0
BRDA:493,0,4,1
BRDA:493,0,5,0
BRDA:493,0,6,0
BRDA:493,0,7,1
BRDA:493,0,8,0
BRDA:493,0,9,0
BRDA:493,0,10,0
BRDA:493,0,11,0
BRDA:493,0,12,0
BRDA:493,0,13,0
BRDA:496,0,0,1
BRDA:496,0,1,0
BRDA:500,0,0,1
BRDA:500,0,1,0
BRDA:500,0,2,1
BRDA:500,0,3,0
BRDA:500,0,4,0
BRDA:500,0,5,1
BRDA:500,0,6,0
BRDA:500,0,7,0
BRDA:500,0,8,0
BRDA:500,0,9,0
BRDA:500,0,10,0
BRDA:500,0,11,0
BRDA:500,0,12,0
BRDA:500,0,13,0
BRDA:500,0,14,1
BRDA:500,0,15,0
BRDA:502,0,0,1
BRDA:502,0,1,0
BRDA:502,0,2,1
BRDA:502,0,3,0
BRDA:502,0,4,1
BRDA:502,0,5,0
BRDA:506,0,0,1
BRDA:506,0,1,0
BRDA:506,0,2,1
BRDA:506,0,3,0
BRDA:506,0,4,0
BRDA:506,0,5,1
BRDA:506,0,6,0
BRDA:506,0,7,0
BRDA:506,0,8,0
BRDA:506,0,9,0
BRDA:506,0,10,0
BRDA:506,0,11,0
BRDA:508,0,0,1
BRDA:508,0,1,0
BRDA:508,0,2,0
BRDA:508,0,3,1
BRDA:508,0,4,0
BRDA:508,0,5,0
BRDA:508,0,6,0
BRDA:508,0,7,0
BRDA:508,0,8,0
BRDA:508,0,9,0
BRDA:511,0,0,1
BRDA:511,0,1,0
BRDA:515,0,0,1
BRDA:515,0,1,0
BRDA:516,0,0,1
BRDA:516,0,1,0
BRDA:517,0,0,1
BRDA:517,0,1,0
BRDA:519,0,0,1
BRDA:519,0,1,0
BRDA:519,0,2,1
BRDA:519,0,3,0
BRDA:519,0,4,1
BRDA:519,0,5,0
BRDA:519,0,6,0
BRDA:519,0,7,1
BRDA:519,0,8,0
BRDA:519,0,9,0
BRDA:519,0,10,0
BRDA:519,0,11,0
BRDA:519,0,12,0
BRDA:519,0,13,0
BRDA:521,0,0,1
BRDA:521,0,1,0
BRDA:526,0,0,1
BRDA:526,0,1,0
BRDA:526,0,2,1
BRDA:526,0,3,0
BRDA:526,0,4,0
BRDA:526,0,5,1
BRDA:526,0,6,0
BRDA:526,0,7,0
BRDA:526,0,8,0
BRDA:526,0,9,0
BRDA:526,0,10,0
BRDA:526,0,11,0
BRDA:526,0,12,0
BRDA:526,0,13,0
BRDA:526,0,14,1
BRDA:526,0,15,0
BRDA:529,0,0,1
BRDA:529,0,1,0
BRDA:529,0,2,1
BRDA:529,0,3,0
BRDA:529,0,4,1
BRDA:529,0,5,0
BRDA:529,0,6,1
BRDA:529,0,7,0
BRDA:533,0,0,1
BRDA:533,0,1,0
BRDA:533,0,2,1
BRDA:533,0,3,0
BRDA:533,0,4,0
BRDA:533,0,5,1
BRDA:533,0,6,0
BRDA:533,0,7,0
BRDA:533,0,8,0
BRDA:533,0,9,0
BRDA:533,0,10,0
BRDA:533,0,11,0
BRDA:535,0,0,1
BRDA:535,0,1,0
BRDA:535,0,2,0
BRDA:535,0,3,1
BRDA:535,0,4,0
BRDA:535,0,5,0
BRDA:535,0,6,0
BRDA:535,0,7,0
BRDA:535,0,8,0
BRDA:535,0,9,0
BRDA:535,0,10,1
BRDA:535,0,11,0
BRDA:539,0,0,1
BRDA:539,0,1,0
BRDA:540,0,0,1
BRDA:540,0,1,0
BRDA:541,0,0,1
BRDA:541,0,1,0
BRDA:543,0,0,1
BRDA:543,0,1,0
BRDA:543,0,2,0
BRDA:543,0,3,1
BRDA:543,0,4,0
BRDA:543,0,5,0
BRDA:543,0,6,0
BRDA:543,0,7,0
BRDA:543,0,8,0
BRDA:543,0,9,0
BRDA:544,0,0,1
BRDA:544,0,1,0
BRDA:548,0,0,1
BRDA:548,0,1,0
BRDA:548,0,2,1
BRDA:548,0,3,0
BRDA:548,0,4,0
BRDA:548,0,5,1
BRDA:548,0,6,0
BRDA:548,0,7,0
BRDA:548,0,8,0
BRDA:548,0,9,0
BRDA:548,0,10,0
BRDA:548,0,11,0
BRDA:548,0,12,0
BRDA:548,0,13,0
BRDA:549,0,0,1
BRDA:549,0,1,0
BRDA:552,0,0,1
BRDA:552,0,1,0
BRDA:552,0,2,1
BRDA:552,0,3,0
BRDA:552,0,4,1
BRDA:552,0,5,0
BRDA:552,0,6,1
BRDA:552,0,7,0
BRDA:552,0,8,1
BRDA:552,0,9,0
BRDA:553,0,0,1
BRDA:553,0,1,0
BRDA:553,0,2,1
BRDA:553,0,3,0
BRDA:553,0,4,1
BRDA:553,0,5,0
BRDA:555,0,0,1
BRDA:555,0,1,0
BRDA:555,0,2,1
BRDA:555,0,3,0
BRDA:555,0,4,0
BRDA:555,0,5,1
BRDA:555,0,6,0
BRDA:555,0,7,0
BRDA:555,0,8,0
BRDA:555,0,9,0
BRDA:555,0,10,0
BRDA:555,0,11,0
BRDA:559,0,0,1
BRDA:559,0,1,0
BRDA:560,0,0,1
BRDA:560,0,1,0
BRDA:561,0,0,1
BRDA:561,0,1,0
BRDA:563,0,0,1
BRDA:563,0,1,0
BRDA:563,0,2,1
BRDA:563,0,3,0
BRDA:563,0,4,1
BRDA:563,0,5,0
BRDA:563,0,6,0
BRDA:563,0,7,1
BRDA:563,0,8,0
BRDA:563,0,9,0
BRDA:563,0,10,0
BRDA:563,0,11,0
BRDA:563,0,12,0
BRDA:563,0,13,0
BRDA:566,0,0,1
BRDA:566,0,1,0
BRDA:571,0,0,1
BRDA:571,0,1,0
BRDA:571,0,2,1
BRDA:571,0,3,0
BRDA:571,0,4,0
BRDA:571,0,5,1
BRDA:571,0,6,0
BRDA:571,0,7,0
BRDA:571,0,8,0
BRDA:571,0,9,0
BRDA:571,0,10,0
BRDA:571,0,11,0
BRDA:571,0,12,0
BRDA:571,0,13,0
BRDA:572,0,0,1
BRDA:572,0,1,0
BRDA:574,0,0,1
BRDA:574,0,1,0
BRDA:574,0,2,1
BRDA:574,0,3,0
BRDA:574,0,4,1
BRDA:574,0,5,0
BRDA:575,0,0,1
BRDA:575,0,1,0
BRDA:575,0,2,1
BRDA:575,0,3,0
BRDA:575,0,4,1
BRDA:575,0,5,0
BRDA:577,0,0,1
BRDA:577,0,1,0
BRDA:577,0,2,1
BRDA:577,0,3,0
BRDA:577,0,4,0
BRDA:577,0,5,1
BRDA:577,0,6,0
BRDA:577,0,7,0
BRDA:577,0,8,0
BRDA:577,0,9,0
BRDA:577,0,10,0
BRDA:577,0,11,0
BRDA:578,0,0,1
BRDA:578,0,1,0
BRDA:578,0,2,1
BRDA:578,0,3,0
BRDA:578,0,4,0
BRDA:578,0,5,1
BRDA:578,0,6,0
BRDA:578,0,7,0
BRDA:578,0,8,0
BRDA:578,0,9,0
BRDA:578,0,10,0
BRDA:578,0,11,0
BRDA:582,0,0,1
BRDA:582,0,1,0
BRDA:583,0,0,1
BRDA:583,0,1,0
BRDA:584,0,0,1
BRDA:584,0,1,0
BRDA:586,0,0,1
BRDA:586,0,1,0
BRDA:586,0,2,1
BRDA:586,0,3,0
BRDA:586,0,4,1
BRDA:586,0,5,0
BRDA:586,0,6,0
BRDA:586,0,7,1
BRDA:586,0,8,0
BRDA:586,0,9,0
BRDA:586,0,10,0
BRDA:586,0,11,0
BRDA:586,0,12,0
BRDA:586,0,13,0
BRDA:590,0,0,1
BRDA:590,0,1,0
BRDA:595,0,0,1
BRDA:595,0,1,0
BRDA:595,0,2,1
BRDA:595,0,3,0
BRDA:595,0,4,0
BRDA:595,0,5,1
BRDA:595,0,6,0
BRDA:595,0,7,0
BRDA:595,0,8,0
BRDA:595,0,9,0
BRDA:595,0,10,0
BRDA:595,0,11,0
BRDA:595,0,12,0
BRDA:595,0,13,0
BRDA:596,0,0,1
BRDA:596,0,1,0
BRDA:600,0,0,1
BRDA:600,0,1,0
BRDA:600,0,2,1
BRDA:600,0,3,0
BRDA:601,0,0,1
BRDA:601,0,1,0
BRDA:601,0,2,1
BRDA:601,0,3,0
BRDA:601,0,4,0
BRDA:601,0,5,1
BRDA:601,0,6,0
BRDA:601,0,7,0
BRDA:601,0,8,0
BRDA:601,0,9,0
BRDA:601,0,10,0
BRDA:601,0,11,0
BRDA:601,0,12,0
BRDA:601,0,13,0
BRDA:602,0,0,1
BRDA:602,0,1,0
BRDA:603,0,0,1
BRDA:603,0,1,0
BRDA:603,0,2,1
BRDA:603,0,3,0
BRDA:603,0,4,0
BRDA:603,0,5,1
BRDA:603,0,6,0
BRDA:603,0,7,0
BRDA:603,0,8,0
BRDA:603,0,9,0
BRDA:603,0,10,0
BRDA:603,0,11,0
BRDA:603,0,12,0
BRDA:603,0,13,0
BRDA:604,0,0,1
BRDA:604,0,1,0
BRDA:607,0,0,1
BRDA:607,0,1,0
BRDA:607,0,2,1
BRDA:607,0,3,0
BRDA:607,0,4,1
BRDA:607,0,5,0
BRDA:607,0,6,1
BRDA:607,0,7,0
BRDA:608,0,0,1
BRDA:608,0,1,0
BRDA:608,0,2,1
BRDA:608,0,3,0
BRDA:608,0,4,1
BRDA:608,0,5,0
BRDA:610,0,0,1
BRDA:610,0,1,0
BRDA:610,0,2,1
BRDA:610,0,3,0
BRDA:610,0,4,0
BRDA:610,0,5,1
BRDA:610,0,6,0
BRDA:610,0,7,0
BRDA:610,0,8,0
BRDA:610,0,9,0
BRDA:610,0,10,0
BRDA:610,0,11,0
BRDA:611,0,0,1
BRDA:611,0,1,0
BRDA:611,0,2,1
BRDA:611,0,3,0
BRDA:611,0,4,0
BRDA:611,0,5,1
BRDA:611,0,6,0
BRDA:611,0,7,0
BRDA:611,0,8,0
BRDA:611,0,9,0
BRDA:611,0,10,0
BRDA:611,0,11,0
BRDA:615,0,0,1
BRDA:615,0,1,0
BRDA:616,0,0,1
BRDA:616,0,1,0
BRDA:617,0,0,1
BRDA:617,0,1,0
BRDA:619,0,0,1
BRDA:619,0,1,0
BRDA:619,0,2,1
BRDA:619,0,3,0
BRDA:619,0,4,1
BRDA:619,0,5,0
BRDA:619,0,6,0
BRDA:619,0,7,1
BRDA:619,0,8,0
BRDA:619,0,9,0
BRDA:619,0,10,0
BRDA:619,0,11,0
BRDA:619,0,12,0
BRDA:619,0,13,0
BRDA:625,0,0,1
BRDA:625,0,1,0
BRDA:632,0,0,2
BRDA:632,0,1,0
BRDA:632,0,2,2
BRDA:632,0,3,0
BRDA:633,0,0,2
BRDA:633,0,1,0
BRDA:633,0,2,2
BRDA:633,0,3,0
BRDA:633,0,4,0
BRDA:633,0,5,2
BRDA:633,0,6,0
BRDA:633,0,7,0
BRDA:633,0,8,0
BRDA:633,0,9,0
BRDA:633,0,10,0
BRDA:633,0,11,0
BRDA:633,0,12,0
BRDA:633,0,13,0
BRDA:634,0,0,2
BRDA:634,0,1,0
BRDA:635,0,0,2
BRDA:635,0,1,0
BRDA:635,0,2,2
BRDA:635,0,3,0
BRDA:635,0,4,0
BRDA:635,0,5,2
BRDA:635,0,6,0
BRDA:635,0,7,0
BRDA:635,0,8,0
BRDA:635,0,9,0
BRDA:635,0,10,0
BRDA:635,0,11,0
BRDA:635,0,12,0
BRDA:635,0,13,0
BRDA:638,0,0,2
BRDA:638,0,1,0
BRDA:642,0,0,2
BRDA:642,0,1,0
BRDA:642,0,2,2
BRDA:642,0,3,0
BRDA:642,0,4,2
BRDA:642,0,5,0
BRDA:642,0,6,2
BRDA:642,0,7,0
BRDA:642,0,8,2
BRDA:642,0,9,0
BRDA:642,0,10,0
BRDA:642,0,11,2
BRDA:642,0,12,0
BRDA:642,0,13,0
BRDA:642,0,14,0
BRDA:642,0,15,0
BRDA:642,0,16,0
BRDA:642,0,17,0
BRDA:642,0,18,0
BRDA:642,0,19,0
BRDA:646,0,0,2
BRDA:646,0,1,0
BRDA:648,0,0,2
BRDA:648,0,1,0
BRDA:648,0,2,2
BRDA:648,0,3,0
BRDA:648,0,4,2
BRDA:648,0,5,0
BRDA:649,0,0,2
BRDA:649,0,1,0
BRDA:649,0,2,2
BRDA:649,0,3,0
BRDA:649,0,4,2
BRDA:649,0,5,0
BRDA:651,0,0,2
BRDA:651,0,1,0
BRDA:651,0,2,2
BRDA:651,0,3,0
BRDA:651,0,4,0
BRDA:651,0,5,2
BRDA:651,0,6,0
BRDA:651,0,7,0
BRDA:651,0,8,0
BRDA:651,0,9,0
BRDA:651,0,10,0
BRDA:651,0,11,0
BRDA:652,0,0,2
BRDA:652,0,1,0
BRDA:652,0,2,2
BRDA:652,0,3,0
BRDA:652,0,4,0
BRDA:652,0,5,2
BRDA:652,0,6,0
BRDA:652,0,7,0
BRDA:652,0,8,0
BRDA:652,0,9,0
BRDA:652,0,10,0
BRDA:652,0,11,0
BRDA:656,0,0,2
BRDA:656,0,1,0
BRDA:657,0,0,2
BRDA:657,0,1,0
BRDA:658,0,0,2
BRDA:658,0,1,0
BRDA:660,0,0,2
BRDA:660,0,1,0
BRDA:660,0,2,2
BRDA:660,0,3,0
BRDA:660,0,4,2
BRDA:660,0,5,0
BRDA:660,0,6,0
BRDA:660,0,7,2
BRDA:660,0,8,0
BRDA:660,0,9,0
BRDA:660,0,10,0
BRDA:660,0,11,0
BRDA:660,0,12,0
BRDA:660,0,13,0
BRDA:669,0,0,2
BRDA:669,0,1,0
BRDA:673,0,0,2
BRDA:673,0,1,0
BRDA:673,0,2,2
BRDA:673,0,3,0
BRDA:674,0,0,2
BRDA:674,0,1,0
BRDA:674,0,2,2
BRDA:674,0,3,0
BRDA:674,0,4,0
BRDA:674,0,5,2
BRDA:674,0,6,0
BRDA:674,0,7,0
BRDA:674,0,8,0
BRDA:674,0,9,0
BRDA:674,0,10,0
BRDA:674,0,11,0
BRDA:674,0,12,0
BRDA:674,0,13,0
BRDA:674,0,14,2
BRDA:674,0,15,0
BRDA:678,0,0,2
BRDA:678,0,1,0
BRDA:678,0,2,2
BRDA:678,0,3,0
BRDA:678,0,4,2
BRDA:678,0,5,0
BRDA:678,0,6,2
BRDA:678,0,7,0
BRDA:678,0,8,2
BRDA:678,0,9,0
BRDA:678,0,10,2
BRDA:678,0,11,0
BRDA:678,0,12,2
BRDA:678,0,13,0
BRDA:678,0,14,2
BRDA:678,0,15,0
BRDA:678,0,16,0
BRDA:678,0,17,2
BRDA:678,0,18,0
BRDA:678,0,19,0
BRDA:678,0,20,0
BRDA:678,0,21,0
BRDA:678,0,22,0
BRDA:678,0,23,0
BRDA:678,0,24,0
BRDA:678,0,25,0
BRDA:681,0,0,2
BRDA:681,0,1,0
BRDA:683,0,0,2
BRDA:683,0,1,0
BRDA:683,0,2,2
BRDA:683,0,3,0
BRDA:683,0,4,2
BRDA:683,0,5,0
BRDA:684,0,0,2
BRDA:684,0,1,0
BRDA:684,0,2,2
BRDA:684,0,3,0
BRDA:684,0,4,2
BRDA:684,0,5,0
BRDA:688,0,0,2
BRDA:688,0,1,0
BRDA:693,0,0,2
BRDA:693,0,1,0
BRDA:693,0,2,2
BRDA:693,0,3,0
BRDA:694,0,0,2
BRDA:694,0,1,0
BRDA:694,0,2,2
BRDA:694,0,3,0
BRDA:694,0,4,0
BRDA:694,0,5,2
BRDA:694,0,6,0
BRDA:694,0,7,0
BRDA:694,0,8,0
BRDA:694,0,9,0
BRDA:694,0,10,0
BRDA:694,0,11,0
BRDA:694,0,12,0
BRDA:694,0,13,0
BRDA:694,0,14,2
BRDA:694,0,15,0
BRDA:698,0,0,2
BRDA:698,0,1,0
BRDA:698,0,2,2
BRDA:698,0,3,0
BRDA:698,0,4,2
BRDA:698,0,5,0
BRDA:698,0,6,2
BRDA:698,0,7,0
BRDA:698,0,8,2
BRDA:698,0,9,0
BRDA:698,0,10,2
BRDA:698,0,11,0
BRDA:698,0,12,0
BRDA:698,0,13,2
BRDA:698,0,14,0
BRDA:698,0,15,0
BRDA:698,0,16,0
BRDA:698,0,17,0
BRDA:698,0,18,0
BRDA:698,0,19,0
BRDA:698,0,20,0
BRDA:698,0,21,0
BRDA:702,0,0,2
BRDA:702,0,1,0
BRDA:704,0,0,2
BRDA:704,0,1,0
BRDA:704,0,2,2
BRDA:704,0,3,0
BRDA:704,0,4,2
BRDA:704,0,5,0
BRDA:705,0,0,2
BRDA:705,0,1,0
BRDA:705,0,2,2
BRDA:705,0,3,0
BRDA:705,0,4,2
BRDA:705,0,5,0
BRDA:709,0,0,2
BRDA:709,0,1,0
BRDA:714,0,0,2
BRDA:714,0,1,0
BRDA:714,0,2,2
BRDA:714,0,3,0
BRDA:715,0,0,2
BRDA:715,0,1,0
BRDA:715,0,2,2
BRDA:715,0,3,0
BRDA:715,0,4,0
BRDA:715,0,5,2
BRDA:715,0,6,0
BRDA:715,0,7,0
BRDA:715,0,8,0
BRDA:715,0,9,0
BRDA:715,0,10,0
BRDA:715,0,11,0
BRDA:715,0,12,0
BRDA:715,0,13,0
BRDA:715,0,14,2
BRDA:715,0,15,0
BRDA:719,0,0,2
BRDA:719,0,1,0
BRDA:719,0,2,2
BRDA:719,0,3,0
BRDA:719,0,4,2
BRDA:719,0,5,0
BRDA:719,0,6,2
BRDA:719,0,7,0
BRDA:719,0,8,2
BRDA:719,0,9,0
BRDA:719,0,10,2
BRDA:719,0,11,0
BRDA:719,0,12,0
BRDA:719,0,13,2
BRDA:719,0,14,0
BRDA:719,0,15,0
BRDA:719,0,16,0
BRDA:719,0,17,0
BRDA:719,0,18,0
BRDA:719,0,19,0
BRDA:719,0,20,0
BRDA:719,0,21,0
BRDA:723,0,0,2
BRDA:723,0,1,0
BRDA:725,0,0,2
BRDA:725,0,1,0
BRDA:725,0,2,2
BRDA:725,0,3,0
BRDA:725,0,4,2
BRDA:725,0,5,0
BRDA:726,0,0,2
BRDA:726,0,1,0
BRDA:726,0,2,2
BRDA:726,0,3,0
BRDA:726,0,4,2
BRDA:726,0,5,0
BRDA:730,0,0,2
BRDA:730,0,1,0
BRDA:734,0,0,2
BRDA:734,0,1,0
BRDA:734,0,2,2
BRDA:734,0,3,0
BRDA:735,0,0,2
BRDA:735,0,1,0
BRDA:735,0,2,2
BRDA:735,0,3,0
BRDA:735,0,4,0
BRDA:735,0,5,2
BRDA:735,0,6,0
BRDA:735,0,7,0
BRDA:735,0,8,0
BRDA:735,0,9,0
BRDA:735,0,10,0
BRDA:735,0,11,0
BRDA:735,0,12,0
BRDA:735,0,13,0
BRDA:735,0,14,2
BRDA:735,0,15,0
BRDA:738,0,0,2
BRDA:738,0,1,0
BRDA:738,0,2,2
BRDA:738,0,3,0
BRDA:739,0,0,2
BRDA:739,0,1,0
BRDA:739,0,2,2
BRDA:739,0,3,0
BRDA:739,0,4,2
BRDA:739,0,5,0
BRDA:739,0,6,0
BRDA:739,0,7,2
BRDA:739,0,8,0
BRDA:739,0,9,0
BRDA:739,0,10,0
BRDA:739,0,11,0
BRDA:739,0,12,0
BRDA:739,0,13,0
BRDA:739,0,14,0
BRDA:739,0,15,0
BRDA:741,0,0,2
BRDA:741,0,1,0
BRDA:744,0,0,2
BRDA:744,0,1,0
BRDA:744,0,2,2
BRDA:744,0,3,0
BRDA:745,0,0,2
BRDA:745,0,1,0
BRDA:745,0,2,2
BRDA:745,0,3,0
BRDA:745,0,4,2
BRDA:745,0,5,0
BRDA:745,0,6,0
BRDA:745,0,7,2
BRDA:745,0,8,0
BRDA:745,0,9,0
BRDA:745,0,10,0
BRDA:745,0,11,0
BRDA:745,0,12,0
BRDA:745,0,13,0
BRDA:745,0,14,0
BRDA:745,0,15,0
BRDA:747,0,0,2
BRDA:747,0,1,0
BRDA:751,0,0,2
BRDA:751,0,1,0
BRDA:751,0,2,2
BRDA:751,0,3,0
BRDA:751,0,4,2
BRDA:751,0,5,0
BRDA:751,0,6,2
BRDA:751,0,7,0
BRDA:751,0,8,2
BRDA:751,0,9,0
BRDA:751,0,10,2
BRDA:751,0,11,0
BRDA:751,0,12,2
BRDA:751,0,13,0
BRDA:751,0,14,2
BRDA:751,0,15,0
BRDA:751,0,16,0
BRDA:751,0,17,2
BRDA:751,0,18,0
BRDA:751,0,19,0
BRDA:751,0,20,0
BRDA:751,0,21,0
BRDA:751,0,22,0
BRDA:751,0,23,0
BRDA:751,0,24,0
BRDA:751,0,25,0
BRDA:754,0,0,2
BRDA:754,0,1,0
BRDA:756,0,0,2
BRDA:756,0,1,0
BRDA:756,0,2,2
BRDA:756,0,3,0
BRDA:756,0,4,2
BRDA:756,0,5,0
BRDA:757,0,0,2
BRDA:757,0,1,0
BRDA:757,0,2,2
BRDA:757,0,3,0
BRDA:757,0,4,2
BRDA:757,0,5,0
BRDA:761,0,0,2
BRDA:761,0,1,0
BRDA:766,0,0,2
BRDA:766,0,1,0
BRDA:766,0,2,2
BRDA:766,0,3,0
BRDA:767,0,0,2
BRDA:767,0,1,0
BRDA:767,0,2,2
BRDA:767,0,3,0
BRDA:767,0,4,0
BRDA:767,0,5,2
BRDA:767,0,6,0
BRDA:767,0,7,0
BRDA:767,0,8,0
BRDA:767,0,9,0
BRDA:767,0,10,0
BRDA:767,0,11,0
BRDA:767,0,12,0
BRDA:767,0,13,0
BRDA:767,0,14,2
BRDA:767,0,15,0
BRDA:771,0,0,2
BRDA:771,0,1,0
BRDA:771,0,2,2
BRDA:771,0,3,0
BRDA:771,0,4,2
BRDA:771,0,5,0
BRDA:771,0,6,0
BRDA:771,0,7,2
BRDA:771,0,8,0
BRDA:771,0,9,0
BRDA:771,0,10,0
BRDA:771,0,11,0
BRDA:771,0,12,0
BRDA:771,0,13,0
BRDA:771,0,14,0
BRDA:771,0,15,0
BRDA:774,0,0,2
BRDA:774,0,1,0
BRDA:777,0,0,2
BRDA:777,0,1,0
BRDA:777,0,2,2
BRDA:777,0,3,0
BRDA:777,0,4,2
BRDA:777,0,5,0
BRDA:777,0,6,2
BRDA:777,0,7,0
BRDA:778,0,0,2
BRDA:778,0,1,0
BRDA:778,0,2,2
BRDA:778,0,3,0
BRDA:778,0,4,2
BRDA:778,0,5,0
BRDA:784,0,0,2
BRDA:784,0,1,0
BRDA:789,0,0,1
BRDA:789,0,1,0
BRDA:789,0,2,1
BRDA:789,0,3,0
BRDA:791,0,0,1
BRDA:791,0,1,0
BRDA:791,0,2,1
BRDA:791,0,3,0
BRDA:791,0,4,0
BRDA:791,0,5,1
BRDA:791,0,6,0
BRDA:791,0,7,0
BRDA:791,0,8,0
BRDA:791,0,9,0
BRDA:791,0,10,0
BRDA:791,0,11,0
BRDA:791,0,12,0
BRDA:791,0,13,0
BRDA:792,0,0,1
BRDA:792,0,1,0
BRDA:794,0,0,1
BRDA:794,0,1,0
BRDA:794,0,2,1
BRDA:794,0,3,0
BRDA:794,0,4,1
BRDA:794,0,5,0
BRDA:795,0,0,1
BRDA:795,0,1,0
BRDA:795,0,2,1
BRDA:795,0,3,0
BRDA:795,0,4,1
BRDA:795,0,5,0
BRDA:798,0,0,1
BRDA:798,0,1,0
BRDA:798,0,2,1
BRDA:798,0,3,0
BRDA:802,0,0,1
BRDA:802,0,1,0
BRDA:802,0,2,1
BRDA:802,0,3,0
BRDA:804,0,0,1
BRDA:804,0,1,0
BRDA:804,0,2,1
BRDA:804,0,3,0
BRDA:804,0,4,0
BRDA:804,0,5,1
BRDA:804,0,6,0
BRDA:804,0,7,0
BRDA:804,0,8,0
BRDA:804,0,9,0
BRDA:804,0,10,0
BRDA:804,0,11,0
BRDA:804,0,12,0
BRDA:804,0,13,0
BRDA:805,0,0,1
BRDA:805,0,1,0
BRDA:807,0,0,1
BRDA:807,0,1,0
BRDA:807,0,2,1
BRDA:807,0,3,0
BRDA:807,0,4,1
BRDA:807,0,5,0
BRDA:808,0,0,1
BRDA:808,0,1,0
BRDA:808,0,2,1
BRDA:808,0,3,0
BRDA:808,0,4,1
BRDA:808,0,5,0
BRDA:809,0,0,1
BRDA:809,0,1,0
BRDA:809,0,2,1
BRDA:809,0,3,0
BRDA:818,0,0,1
BRDA:818,0,1,0
BRDA:818,0,2,1
BRDA:818,0,3,0
BRDA:819,0,0,1
BRDA:819,0,1,0
BRDA:819,0,2,1
BRDA:819,0,3,0
BRDA:819,0,4,0
BRDA:819,0,5,1
BRDA:819,0,6,0
BRDA:819,0,7,0
BRDA:819,0,8,0
BRDA:819,0,9,0
BRDA:819,0,10,0
BRDA:819,0,11,0
BRDA:819,0,12,0
BRDA:819,0,13,0
BRDA:820,0,0,1
BRDA:820,0,1,0
BRDA:822,0,0,1
BRDA:822,0,1,0
BRDA:822,0,2,1
BRDA:822,0,3,0
BRDA:822,0,4,0
BRDA:822,0,5,1
BRDA:822,0,6,0
BRDA:822,0,7,0
BRDA:822,0,8,0
BRDA:822,0,9,0
BRDA:822,0,10,0
BRDA:822,0,11,0
BRDA:822,0,12,0
BRDA:822,0,13,0
BRDA:823,0,0,1
BRDA:823,0,1,0
BRDA:825,0,0,1
BRDA:825,0,1,0
BRDA:825,0,2,1
BRDA:825,0,3,0
BRDA:825,0,4,1
BRDA:825,0,5,0
BRDA:826,0,0,1
BRDA:826,0,1,0
BRDA:826,0,2,1
BRDA:826,0,3,0
BRDA:826,0,4,1
BRDA:826,0,5,0
BRDA:827,0,0,1
BRDA:827,0,1,0
BRDA:842,0,0,1
BRDA:842,0,1,0
BRDA:842,0,2,1
BRDA:842,0,3,0
BRDA:846,0,0,1
BRDA:846,0,1,0
BRDA:846,0,2,1
BRDA:846,0,3,0
BRDA:850,0,0,1
BRDA:850,0,1,0
BRDA:850,0,2,1
BRDA:850,0,3,0
BRDA:854,0,0,1
BRDA:854,0,1,0
BRDA:854,0,2,1
BRDA:854,0,3,0
BRDA:859,0,0,1
BRDA:859,0,1,0
BRDA:859,0,2,1
BRDA:859,0,3,0
BRDA:864,0,0,1
BRDA:864,0,1,0
BRDA:864,0,2,1
BRDA:864,0,3,0
BRDA:868,0,0,1
BRDA:868,0,1,0
BRDA:868,0,2,1
BRDA:868,0,3,0
BRDA:872,0,0,1
BRDA:872,0,1,0
BRDA:872,0,2,1
BRDA:872,0,3,0
BRDA:880,0,0,1
BRDA:880,0,1,0
BRDA:880,0,2,1
BRDA:880,0,3,0
BRDA:881,0,0,1
BRDA:881,0,1,0
BRDA:881,0,2,1
BRDA:881,0,3,0
BRDA:881,0,4,0
BRDA:881,0,5,1
BRDA:881,0,6,0
BRDA:881,0,7,0
BRDA:881,0,8,0
BRDA:881,0,9,0
BRDA:881,0,10,0
BRDA:881,0,11,0
BRDA:881,0,12,0
BRDA:881,0,13,0
BRDA:881,0,14,1
BRDA:881,0,15,0
BRDA:883,0,0,1
BRDA:883,0,1,0
BRDA:883,0,2,1
BRDA:883,0,3,0
BRDA:883,0,4,1
BRDA:883,0,5,0
BRDA:883,0,6,0
BRDA:883,0,7,1
BRDA:883,0,8,0
BRDA:883,0,9,0
BRDA:883,0,10,0
BRDA:883,0,11,0
BRDA:883,0,12,0
BRDA:883,0,13,0
BRDA:883,0,14,0
BRDA:883,0,15,0
BRDA:884,0,0,1
BRDA:884,0,1,0
BRDA:888,0,0,1
BRDA:888,0,1,0
BRDA:888,0,2,1
BRDA:888,0,3,0
BRDA:888,0,4,1
BRDA:888,0,5,0
BRDA:888,0,6,0
BRDA:888,0,7,1
BRDA:888,0,8,0
BRDA:888,0,9,0
BRDA:888,0,10,0
BRDA:888,0,11,0
BRDA:888,0,12,0
BRDA:888,0,13,0
BRDA:888,0,14,0
BRDA:888,0,15,0
BRDA:891,0,0,1
BRDA:891,0,1,0
BRDA:893,0,0,1
BRDA:893,0,1,0
BRDA:893,0,2,1
BRDA:893,0,3,0
BRDA:893,0,4,1
BRDA:893,0,5,0
BRDA:894,0,0,1
BRDA:894,0,1,0
BRDA:894,0,2,1
BRDA:894,0,3,0
BRDA:894,0,4,1
BRDA:894,0,5,0
BRDA:898,0,0,1
BRDA:898,0,1,0
BRDA:902,0,0,1
BRDA:902,0,1,0
BRDA:902,0,2,1
BRDA:902,0,3,0
BRDA:906,0,0,1
BRDA:906,0,1,0
BRDA:906,0,2,1
BRDA:906,0,3,0
BRDA:910,0,0,1
BRDA:910,0,1,0
BRDA:910,0,2,1
BRDA:910,0,3,0
BRDA:914,0,0,1
BRDA:914,0,1,0
BRDA:914,0,2,1
BRDA:914,0,3,0
BRDA:923,0,0,1
BRDA:923,0,1,0
BRDA:923,0,2,1
BRDA:923,0,3,0
BRDA:923,0,4,0
BRDA:923,0,5,1
BRDA:923,0,6,0
BRDA:923,0,7,0
BRDA:923,0,8,0
BRDA:923,0,9,0
BRDA:923,0,10,0
BRDA:923,0,11,0
BRDA:923,0,12,0
BRDA:923,0,13,0
BRDA:923,0,14,1
BRDA:923,0,15,0
BRDA:927,0,0,1
BRDA:927,0,1,0
BRDA:927,0,2,1
BRDA:927,0,3,0
BRDA:927,0,4,0
BRDA:927,0,5,1
BRDA:927,0,6,0
BRDA:927,0,7,0
BRDA:927,0,8,0
BRDA:927,0,9,0
BRDA:927,0,10,0
BRDA:927,0,11,0
BRDA:927,0,12,0
BRDA:927,0,13,0
BRDA:927,0,14,1
BRDA:927,0,15,0
BRDA:929,0,0,1
BRDA:929,0,1,0
BRDA:929,0,2,1
BRDA:929,0,3,0
BRDA:929,0,4,1
BRDA:929,0,5,0
BRDA:930,0,0,1
BRDA:930,0,1,0
BRDA:930,0,2,1
BRDA:930,0,3,0
BRDA:930,0,4,1
BRDA:930,0,5,0
BRDA:934,0,0,1
BRDA:934,0,1,0
BRDA:938,0,0,1
BRDA:938,0,1,0
BRDA:938,0,2,1
BRDA:938,0,3,0
BRDA:938,0,4,0
BRDA:938,0,5,1
BRDA:938,0,6,0
BRDA:938,0,7,0
BRDA:938,0,8,0
BRDA:938,0,9,0
BRDA:938,0,10,0
BRDA:938,0,11,0
BRDA:938,0,12,0
BRDA:938,0,13,0
BRDA:938,0,14,1
BRDA:938,0,15,0
BRDA:942,0,0,1
BRDA:942,0,1,0
BRDA:942,0,2,1
BRDA:942,0,3,0
BRDA:942,0,4,0
BRDA:942,0,5,1
BRDA:942,0,6,0
BRDA:942,0,7,0
BRDA:942,0,8,0
BRDA:942,0,9,0
BRDA:942,0,10,0
BRDA:942,0,11,0
BRDA:942,0,12,0
BRDA:942,0,13,0
BRDA:942,0,14,1
BRDA:942,0,15,0
BRDA:944,0,0,1
BRDA:944,0,1,0
BRDA:944,0,2,1
BRDA:944,0,3,0
BRDA:944,0,4,1
BRDA:944,0,5,0
BRDA:945,0,0,1
BRDA:945,0,1,0
BRDA:945,0,2,1
BRDA:945,0,3,0
BRDA:945,0,4,1
BRDA:945,0,5,0
BRDA:950,0,0,1
BRDA:950,0,1,0
BRF:2582
BRH:844
DA:54,24
DA:55,16
DA:56,16
DA:61,34
DA:62,34
DA:64,34
DA:65,34
DA:66,102
DA:67,68
DA:68,34
DA:69,68
DA:71,34
DA:72,34
DA:73,34
DA:74,34
DA:75,34
DA:79,34
DA:92,34
DA:93,68
DA:94,34
DA:95,68
DA:96,34
DA:97,34
DA:100,34
DA:105,34
DA:106,34
DA:107,88
DA:108,54
DA:110,34
DA:111,96
DA:112,62
DA:114,34
DA:115,100
DA:116,66
DA:118,34
DA:119,101
DA:120,67
DA:122,34
DA:124,8
DA:127,16
DA:129,8
DA:130,8
DA:131,8
DA:133,0
DA:134,8
DA:136,30
DA:139,60
DA:140,30
DA:141,30
DA:142,30
DA:144,0
DA:145,30
DA:147,4
DA:149,8
DA:150,4
DA:151,4
DA:152,4
DA:154,0
DA:155,4
DA:157,1
DA:159,2
DA:161,2
DA:162,2
DA:163,1
DA:164,1
DA:165,1
DA:167,0
DA:168,1
DA:170,1
DA:173,2
DA:174,1
DA:175,1
DA:176,1
DA:178,0
DA:179,1
DA:193,4
DA:194,1
DA:195,1
DA:196,1
DA:197,1
DA:198,1
DA:199,1
DA:201,3
DA:202,2
DA:203,2
DA:205,1
DA:206,1
DA:207,1
DA:208,1
DA:212,2
DA:215,1
DA:216,1
DA:218,4
DA:219,1
DA:220,1
DA:221,1
DA:222,1
DA:223,1
DA:224,1
DA:227,5
DA:228,2
DA:229,2
DA:231,1
DA:232,1
DA:233,1
DA:234,1
DA:236,2
DA:238,1
DA:239,1
DA:241,4
DA:242,1
DA:243,1
DA:244,1
DA:245,1
DA:246,1
DA:247,1
DA:250,5
DA:251,2
DA:252,2
DA:254,1
DA:255,1
DA:256,1
DA:257,1
DA:259,2
DA:261,1
DA:262,1
DA:264,4
DA:266,1
DA:267,1
DA:268,1
DA:269,1
DA:270,1
DA:271,1
DA:274,1
DA:275,7
DA:276,2
DA:277,2
DA:279,1
DA:280,1
DA:281,1
DA:282,1
DA:284,1
DA:285,1
DA:287,4
DA:288,1
DA:289,1
DA:290,1
DA:291,1
DA:293,3
DA:294,2
DA:295,2
DA:297,1
DA:299,1
DA:300,1
DA:301,2
DA:303,1
DA:304,1
DA:308,2
DA:309,1
DA:310,2
DA:311,2
DA:312,1
DA:314,4
DA:316,2
DA:317,1
DA:318,1
DA:319,1
DA:322,1
DA:323,4
DA:324,1
DA:325,1
DA:327,1
DA:328,1
DA:329,1
DA:330,1
DA:334,1
DA:335,1
DA:336,2
DA:337,1
DA:338,1
DA:340,4
DA:342,1
DA:345,7
DA:346,1
DA:347,1
DA:349,1
DA:350,1
DA:352,1
DA:353,1
DA:355,1
DA:356,1
DA:357,1
DA:361,21
DA:366,21
DA:367,21
DA:369,21
DA:370,21
DA:372,21
DA:373,42
DA:374,42
DA:375,21
DA:378,4
DA:381,1
DA:382,1
DA:383,1
DA:384,1
DA:386,2
DA:387,1
DA:388,1
DA:389,1
DA:391,1
DA:392,6
DA:395,1
DA:396,1
DA:397,1
DA:398,1
DA:401,1
DA:402,1
DA:403,2
DA:405,1
DA:406,1
DA:408,4
DA:409,1
DA:410,1
DA:412,1
DA:413,7
DA:414,1
DA:415,1
DA:416,1
DA:417,1
DA:420,1
DA:424,1
DA:425,1
DA:426,2
DA:428,2
DA:431,1
DA:432,1
DA:434,4
DA:437,1
DA:438,1
DA:439,1
DA:440,1
DA:443,2
DA:444,1
DA:445,1
DA:446,1
DA:447,1
DA:449,1
DA:451,7
DA:454,1
DA:455,1
DA:456,1
DA:457,1
DA:460,1
DA:461,1
DA:462,2
DA:464,1
DA:465,1
DA:467,4
DA:469,2
DA:470,1
DA:471,1
DA:472,1
DA:474,1
DA:476,6
DA:479,1
DA:480,1
DA:481,1
DA:483,1
DA:484,1
DA:489,1
DA:490,1
DA:491,2
DA:493,2
DA:495,1
DA:496,1
DA:498,4
DA:499,1
DA:500,1
DA:502,5
DA:505,1
DA:506,1
DA:507,1
DA:508,1
DA:511,1
DA:515,1
DA:516,1
DA:517,2
DA:519,2
DA:520,1
DA:521,1
DA:523,4
DA:525,1
DA:526,1
DA:528,1
DA:529,6
DA:532,1
DA:533,1
DA:534,1
DA:535,1
DA:539,1
DA:540,1
DA:541,2
DA:543,1
DA:544,1
DA:546,4
DA:547,1
DA:548,1
DA:549,1
DA:552,8
DA:553,1
DA:555,1
DA:559,1
DA:560,1
DA:561,2
DA:563,2
DA:565,1
DA:566,1
DA:568,4
DA:570,1
DA:571,1
DA:572,1
DA:574,6
DA:575,1
DA:577,1
DA:578,1
DA:582,1
DA:583,1
DA:584,2
DA:586,2
DA:589,1
DA:590,1
DA:592,4
DA:594,1
DA:595,1
DA:596,1
DA:600,2
DA:601,1
DA:602,1
DA:603,1
DA:604,1
DA:607,7
DA:608,1
DA:610,1
DA:611,1
DA:615,1
DA:616,1
DA:617,2
DA:619,2
DA:624,1
DA:625,1
DA:629,2
DA:632,4
DA:633,2
DA:634,2
DA:635,2
DA:638,2
DA:641,2
DA:642,2
DA:646,2
DA:648,12
DA:649,2
DA:651,2
DA:652,2
DA:656,2
DA:657,2
DA:658,4
DA:660,4
DA:668,2
DA:669,2
DA:671,2
DA:673,4
DA:674,2
DA:677,2
DA:678,2
DA:681,2
DA:683,10
DA:684,2
DA:688,2
DA:690,2
DA:693,4
DA:694,2
DA:697,2
DA:698,2
DA:702,2
DA:704,10
DA:705,2
DA:709,2
DA:711,2
DA:714,4
DA:715,2
DA:718,2
DA:719,2
DA:723,2
DA:725,10
DA:726,2
DA:730,2
DA:732,2
DA:734,4
DA:735,2
DA:738,4
DA:739,2
DA:741,2
DA:744,4
DA:745,2
DA:747,2
DA:750,2
DA:751,2
DA:754,2
DA:756,10
DA:757,2
DA:761,2
DA:763,2
DA:766,4
DA:767,2
DA:770,2
DA:771,2
DA:774,2
DA:777,12
DA:778,2
DA:784,2
DA:787,4
DA:789,2
DA:790,1
DA:791,1
DA:792,1
DA:794,5
DA:795,1
DA:798,1
DA:800,4
DA:802,2
DA:803,1
DA:804,1
DA:805,1
DA:807,5
DA:808,1
DA:809,1
DA:816,4
DA:818,2
DA:819,1
DA:820,1
DA:821,1
DA:822,1
DA:823,1
DA:825,5
DA:826,1
DA:827,1
DA:841,4
DA:842,1
DA:843,1
DA:845,4
DA:846,1
DA:847,1
DA:849,4
DA:850,1
DA:851,1
DA:853,4
DA:854,1
DA:855,1
DA:857,4
DA:859,1
DA:860,1
DA:862,4
DA:864,1
DA:865,1
DA:867,4
DA:868,1
DA:869,1
DA:871,4
DA:872,1
DA:873,1
DA:877,4
DA:880,2
DA:881,1
DA:883,1
DA:884,1
DA:887,1
DA:888,1
DA:891,1
DA:893,5
DA:894,1
DA:898,1
DA:901,4
DA:902,1
DA:903,1
DA:905,4
DA:906,1
DA:907,1
DA:909,4
DA:910,1
DA:911,1
DA:913,4
DA:914,1
DA:915,1
DA:921,4
DA:922,1
DA:923,1
DA:926,1
DA:927,1
DA:929,5
DA:930,1
DA:934,1
DA:936,4
DA:937,1
DA:938,1
DA:941,1
DA:942,1
DA:944,5
DA:945,1
DA:950,1
LH:505
LF:510
end_of_record
