SF:util/label/label.rs
FN:326,_RNCNvCscQvVXOS7Ja3_5label17name_from_package0B3_
FN:230,_RNCNvCscQvVXOS7Ja3_5label20consume_package_name0B3_
FN:253,_RNCNvCscQvVXOS7Ja3_5label20consume_package_names0_0B3_
FN:238,_RNCNvCscQvVXOS7Ja3_5label20consume_package_names_0B3_
FN:190,_RNCNvCscQvVXOS7Ja3_5label23consume_repository_name0B3_
FN:124,_RNCNvMs_CscQvVXOS7Ja3_5labelNtB6_5Label9repo_name0B6_
FN:293,_RNvCscQvVXOS7Ja3_5label12consume_name
FN:323,_RNvCscQvVXOS7Ja3_5label17name_from_package
FN:217,_RNvCscQvVXOS7Ja3_5label20consume_package_name
FN:151,_RNvCscQvVXOS7Ja3_5label23consume_repository_name
FN:144,_RNvCscQvVXOS7Ja3_5label3err
FN:11,_RNvCscQvVXOS7Ja3_5label7analyze
FN:24,_RNvMCscQvVXOS7Ja3_5labelNtB2_10Repository9repo_name
FN:108,_RNvMs_CscQvVXOS7Ja3_5labelNtB4_5Label11is_relative
FN:136,_RNvMs_CscQvVXOS7Ja3_5labelNtB4_5Label4name
FN:115,_RNvMs_CscQvVXOS7Ja3_5labelNtB4_5Label4repo
FN:48,_RNvMs_CscQvVXOS7Ja3_5labelNtB4_5Label7analyze
FN:129,_RNvMs_CscQvVXOS7Ja3_5labelNtB4_5Label7package
FN:122,_RNvMs_CscQvVXOS7Ja3_5labelNtB4_5Label9repo_name
FN:531,_RNvNtCscQvVXOS7Ja3_5label5testss_17test_name_parsing
FN:438,_RNvNtCscQvVXOS7Ja3_5label5testss_25test_package_name_parsing
FN:335,_RNvNtCscQvVXOS7Ja3_5label5testss_28test_repository_name_parsing
FNDA:0,_RNCNvCscQvVXOS7Ja3_5label17name_from_package0B3_
FNDA:2,_RNCNvCscQvVXOS7Ja3_5label20consume_package_name0B3_
FNDA:130,_RNCNvCscQvVXOS7Ja3_5label20consume_package_names0_0B3_
FNDA:15,_RNCNvCscQvVXOS7Ja3_5label20consume_package_names_0B3_
FNDA:69,_RNCNvCscQvVXOS7Ja3_5label23consume_repository_name0B3_
FNDA:10,_RNCNvMs_CscQvVXOS7Ja3_5labelNtB6_5Label9repo_name0B6_
FNDA:35,_RNvCscQvVXOS7Ja3_5label12consume_name
FNDA:0,_RNvCscQvVXOS7Ja3_5label17name_from_package
FNDA:45,_RNvCscQvVXOS7Ja3_5label20consume_package_name
FNDA:56,_RNvCscQvVXOS7Ja3_5label23consume_repository_name
FNDA:27,_RNvCscQvVXOS7Ja3_5label3err
FNDA:60,_RNvCscQvVXOS7Ja3_5label7analyze
FNDA:12,_RNvMCscQvVXOS7Ja3_5labelNtB2_10Repository9repo_name
FNDA:0,_RNvMs_CscQvVXOS7Ja3_5labelNtB4_5Label11is_relative
FNDA:8,_RNvMs_CscQvVXOS7Ja3_5labelNtB4_5Label4name
FNDA:0,_RNvMs_CscQvVXOS7Ja3_5labelNtB4_5Label4repo
FNDA:60,_RNvMs_CscQvVXOS7Ja3_5labelNtB4_5Label7analyze
FNDA:10,_RNvMs_CscQvVXOS7Ja3_5labelNtB4_5Label7package
FNDA:14,_RNvMs_CscQvVXOS7Ja3_5labelNtB4_5Label9repo_name
FNDA:1,_RNvNtCscQvVXOS7Ja3_5label5testss_17test_name_parsing
FNDA:1,_RNvNtCscQvVXOS7Ja3_5label5testss_25test_package_name_parsing
FNDA:1,_RNvNtCscQvVXOS7Ja3_5label5testss_28test_repository_name_parsing
FNF:22
FNH:18
DA:11,60
DA:12,60
DA:13,60
DA:24,12
DA:25,12
DA:26,3
DA:27,9
DA:29,12
DA:48,60
DA:49,60
DA:50,60
DA:51,60
DA:52,0
DA:53,0
DA:54,0
DA:55,0
DA:56,60
DA:57,60
DA:58,60
DA:59,4
DA:60,0
DA:61,0
DA:62,0
DA:63,0
DA:64,3
DA:66,56
DA:68,56
DA:71,47
DA:72,2
DA:73,2
DA:74,2
DA:75,1
DA:76,1
DA:77,1
DA:78,1
DA:80,1
DA:81,1
DA:82,1
DA:83,1
DA:84,1
DA:86,0
DA:87,45
DA:88,45
DA:89,31
DA:90,29
DA:92,0
DA:93,0
DA:94,0
DA:95,0
DA:97,0
DA:98,29
DA:101,29
DA:102,29
DA:103,29
DA:104,29
DA:105,29
DA:106,60
DA:108,0
DA:109,0
DA:110,0
DA:111,0
DA:113,0
DA:115,0
DA:116,0
DA:117,0
DA:118,0
DA:120,0
DA:122,14
DA:123,14
DA:124,13
DA:125,1
DA:127,14
DA:129,10
DA:130,10
DA:131,1
DA:132,9
DA:134,10
DA:136,8
DA:137,8
DA:138,1
DA:139,7
DA:141,8
DA:144,27
DA:145,27
DA:146,27
DA:147,27
DA:148,27
DA:149,27
DA:151,56
DA:152,56
DA:153,56
DA:154,56
DA:155,56
DA:156,56
DA:157,90
DA:158,90
DA:159,36
DA:160,36
DA:161,54
DA:164,56
DA:165,56
DA:166,56
DA:167,31
DA:168,25
DA:169,25
DA:170,2
DA:171,23
DA:172,23
DA:173,23
DA:174,23
DA:175,23
DA:176,23
DA:177,15
DA:178,15
DA:179,15
DA:180,15
DA:181,15
DA:183,1
DA:184,1
DA:185,1
DA:186,1
DA:187,14
DA:188,14
DA:189,14
DA:190,69
DA:192,2
DA:193,2
DA:194,2
DA:195,2
DA:196,2
DA:197,12
DA:198,8
DA:200,20
DA:201,13
DA:202,7
DA:203,7
DA:204,4
DA:205,4
DA:206,4
DA:207,4
DA:208,3
DA:209,3
DA:211,0
DA:214,16
DA:215,56
DA:217,45
DA:218,45
DA:219,8
DA:220,33
DA:222,4
DA:223,4
DA:224,4
DA:225,4
DA:229,41
DA:230,8
DA:231,8
DA:232,8
DA:233,8
DA:234,8
DA:236,33
DA:237,33
DA:238,33
DA:240,0
DA:242,33
DA:243,15
DA:244,18
DA:249,33
DA:250,6
DA:251,27
DA:252,27
DA:253,130
DA:254,130
DA:255,19
DA:256,8
DA:257,7
DA:258,6
DA:259,5
DA:260,4
DA:261,3
DA:262,2
DA:263,1
DA:264,130
DA:265,1
DA:266,1
DA:267,1
DA:268,1
DA:269,1
DA:270,26
DA:271,26
DA:272,1
DA:273,1
DA:274,1
DA:275,1
DA:276,25
DA:277,25
DA:278,25
DA:282,18
DA:283,8
DA:284,10
DA:286,18
DA:288,7
DA:289,7
DA:290,7
DA:291,45
DA:293,35
DA:294,35
DA:295,0
DA:296,35
DA:297,35
DA:298,1
DA:299,34
DA:300,34
DA:301,16
DA:302,18
DA:303,0
DA:305,18
DA:308,34
DA:309,1
DA:310,1
DA:311,1
DA:312,1
DA:313,33
DA:314,33
DA:315,1
DA:316,1
DA:317,1
DA:318,1
DA:319,32
DA:320,32
DA:321,35
DA:323,0
DA:324,0
DA:325,0
DA:326,0
DA:327,0
DA:328,0
DA:335,1
DA:336,1
DA:337,1
DA:338,1
DA:339,1
DA:340,1
DA:342,1
DA:343,1
DA:344,1
DA:345,1
DA:346,1
DA:347,1
DA:348,1
DA:349,1
DA:350,1
DA:351,1
DA:353,1
DA:354,1
DA:355,1
DA:356,1
DA:357,1
DA:358,1
DA:359,1
DA:360,1
DA:361,1
DA:362,1
DA:364,1
DA:365,1
DA:366,1
DA:367,1
DA:368,1
DA:369,1
DA:371,1
DA:372,1
DA:373,1
DA:374,1
DA:375,1
DA:376,1
DA:378,1
DA:379,1
DA:380,1
DA:381,1
DA:382,1
DA:383,1
DA:385,1
DA:386,1
DA:389,1
DA:390,1
DA:391,1
DA:392,1
DA:393,1
DA:394,1
DA:395,1
DA:396,1
DA:397,1
DA:398,1
DA:399,1
DA:400,1
DA:401,1
DA:402,1
DA:403,1
DA:404,1
DA:405,1
DA:406,1
DA:407,1
DA:408,1
DA:409,1
DA:410,1
DA:411,1
DA:412,1
DA:413,1
DA:414,1
DA:415,1
DA:416,1
DA:417,1
DA:418,1
DA:419,1
DA:420,1
DA:421,1
DA:422,1
DA:423,1
DA:424,1
DA:425,1
DA:427,1
DA:428,1
DA:429,1
DA:430,1
DA:431,1
DA:432,1
DA:434,1
DA:435,1
DA:438,1
DA:439,1
DA:440,1
DA:442,1
DA:443,1
DA:444,1
DA:445,1
DA:446,1
DA:447,1
DA:448,1
DA:449,1
DA:450,1
DA:451,1
DA:452,1
DA:453,1
DA:454,1
DA:455,1
DA:456,1
DA:457,1
DA:459,1
DA:461,1
DA:462,1
DA:463,1
DA:464,1
DA:465,1
DA:466,1
DA:467,1
DA:468,1
DA:469,1
DA:470,1
DA:471,1
DA:472,1
DA:473,1
DA:474,1
DA:475,1
DA:476,1
DA:477,1
DA:478,1
DA:479,1
DA:480,1
DA:481,1
DA:482,1
DA:483,1
DA:484,1
DA:485,1
DA:486,1
DA:487,1
DA:488,1
DA:490,1
DA:491,1
DA:494,1
DA:495,1
DA:496,1
DA:497,1
DA:498,1
DA:499,1
DA:500,1
DA:501,1
DA:502,1
DA:503,1
DA:504,1
DA:505,1
DA:506,1
DA:507,1
DA:509,1
DA:510,1
DA:511,1
DA:512,1
DA:513,1
DA:514,1
DA:515,1
DA:516,1
DA:518,1
DA:519,1
DA:520,1
DA:521,1
DA:522,1
DA:523,1
DA:524,1
DA:525,1
DA:527,1
DA:528,1
DA:531,1
DA:532,1
DA:533,1
DA:534,1
DA:536,1
DA:537,1
DA:538,1
DA:539,1
DA:540,1
DA:541,1
DA:542,1
DA:544,1
DA:545,1
DA:546,1
DA:547,1
DA:548,1
DA:549,1
DA:550,1
DA:552,1
DA:553,1
DA:554,1
DA:555,1
DA:556,1
DA:557,1
DA:558,1
DA:560,1
DA:561,1
DA:562,1
DA:563,1
DA:564,1
DA:565,1
DA:566,1
DA:567,1
DA:569,1
DA:570,1
DA:571,1
DA:572,1
DA:573,1
DA:574,1
DA:575,1
DA:576,1
DA:578,1
DA:579,1
DA:587,1
DA:588,1
DA:589,1
DA:590,1
DA:591,1
DA:592,1
DA:594,1
DA:595,1
LH:426
LF:460
end_of_record
SF:util/label/label_error.rs
FN:5,_RNvXNtCscQvVXOS7Ja3_5label11label_errorNtB2_10LabelErrorNtNtCsbrbDdEzO4k9_4core3fmt7Display3fmt
FN:17,_RNvXs0_NtCscQvVXOS7Ja3_5label11label_errorNtB5_10LabelErrorINtNtCsbrbDdEzO4k9_4core7convert4FromNtNtCs6HzPjBkKJOR_5alloc6string6StringE4from
FN:11,_RNvXs_NtCscQvVXOS7Ja3_5label11label_errorNtB4_10LabelErrorNtNtCsbrbDdEzO4k9_4core5error5Error11description
FNDA:0,_RNvXNtCscQvVXOS7Ja3_5label11label_errorNtB2_10LabelErrorNtNtCsbrbDdEzO4k9_4core3fmt7Display3fmt
FNDA:0,_RNvXs0_NtCscQvVXOS7Ja3_5label11label_errorNtB5_10LabelErrorINtNtCsbrbDdEzO4k9_4core7convert4FromNtNtCs6HzPjBkKJOR_5alloc6string6StringE4from
FNDA:0,_RNvXs_NtCscQvVXOS7Ja3_5label11label_errorNtB4_10LabelErrorNtNtCsbrbDdEzO4k9_4core5error5Error11description
FNF:3
FNH:0
DA:5,0
DA:6,0
DA:7,0
DA:11,0
DA:12,0
DA:13,0
DA:17,0
DA:18,0
DA:19,0
LH:0
LF:9
end_of_record
